(dp0
Vlimited
p1
(lp2
g1
aI3
aF0.014283673760891302
aF0.052083333333333336
aF-0.07142857142857142
asVdesirable
p3
(lp4
g3
aI29
aF0.3428081702613912
aF0.13020833333333334
aF0.0
asVyellow
p5
(lp6
g5
aI3
aF0.0428510212826739
aF0.0
aF0.0
asVnursery
p7
(lp8
g7
aI1
aF0.014283673760891302
aF0.0
aF0.0
asVsleep
p9
(lp10
g9
aI1
aF0.014283673760891302
aF0.0
aF0.0
asVtrodden
p11
(lp12
g11
aI1
aF0.0
aF0.026041666666666668
aF0.0
asVappetite
p13
(lp14
g13
aI2
aF0.028567347521782603
aF0.0
aF0.0
asVcaptain
p15
(lp16
g15
aI1
aF0.014283673760891302
aF0.0
aF0.0
asVunfeeling
p17
(lp18
g17
aI4
aF0.0428510212826739
aF0.026041666666666668
aF0.0
asVeligible
p19
(lp20
g19
aI10
aF0.0857020425653478
aF0.10416666666666667
aF0.0
asVsweetest
p21
(lp22
g21
aI2
aF0.028567347521782603
aF0.0
aF0.0
asVregal
p23
(lp24
g23
aI1
aF0.014283673760891302
aF0.0
aF0.0
asVsorry
p25
(lp26
g25
aI65
aF0.6427653192401086
aF0.5208333333333334
aF-0.5
asVplaintive
p27
(lp28
g27
aI2
aF0.014283673760891302
aF0.026041666666666668
aF0.0
asVworth
p29
(lp30
g29
aI25
aF0.2142551064133695
aF0.2604166666666667
aF0.3
asVdisobedient
p31
(lp32
g31
aI1
aF0.0
aF0.026041666666666668
aF0.0
asVevery
p33
(lp34
g33
aI1
aF0.014283673760891302
aF0.0
aF0.0
asVfoul
p35
(lp36
g35
aI1
aF0.014283673760891302
aF0.0
aF0.0
asVuncertain
p37
(lp38
g37
aI9
aF0.11426939008713041
aF0.026041666666666668
aF0.0
asVvast
p39
(lp40
g39
aI8
aF0.07141836880445651
aF0.078125
aF0.0
asVbewildered
p41
(lp42
g41
aI1
aF0.014283673760891302
aF0.0
aF0.0
asVwooden
p43
(lp44
g43
aI1
aF0.0
aF0.026041666666666668
aF0.0
asVconceive
p45
(lp46
g45
aI1
aF0.014283673760891302
aF0.0
aF0.0
asVadmissible
p47
(lp48
g47
aI1
aF0.014283673760891302
aF0.0
aF0.0
asVwhist
p49
(lp50
g49
aI1
aF0.014283673760891302
aF0.0
aF0.0
asVdeplorable
p51
(lp52
g51
aI4
aF0.014283673760891302
aF0.078125
aF-0.6
asVidlest
p53
(lp54
g53
aI1
aF0.0
aF0.026041666666666668
aF0.0
asVungenerous
p55
(lp56
g55
aI4
aF0.0428510212826739
aF0.026041666666666668
aF0.0
asVtired
p57
(lp58
g57
aI7
aF0.07141836880445651
aF0.052083333333333336
aF-0.4
asVconsistent
p59
(lp60
g59
aI6
aF0.014283673760891302
aF0.13020833333333334
aF0.25
asVdirect
p61
(lp62
g61
aI6
aF0.07141836880445651
aF0.026041666666666668
aF0.1
asVpulse
p63
(lp64
g63
aI1
aF0.014283673760891302
aF0.0
aF0.0
asVelegant
p65
(lp66
g65
aI31
aF0.39994286530495643
aF0.078125
aF0.5
asVsecond
p67
(lp68
g67
aI52
aF0.44279388658763036
aF0.546875
aF0.0
asVshining
p69
(lp70
g69
aI1
aF0.0
aF0.026041666666666668
aF0.0
asVblue
p71
(lp72
g71
aI7
aF0.09998571632623911
aF0.0
aF0.0
asVoldest
p73
(lp74
g73
aI1
aF0.014283673760891302
aF0.0
aF0.0
asVincompatible
p75
(lp76
g75
aI3
aF0.028567347521782603
aF0.026041666666666668
aF0.0
asVsolemn
p77
(lp78
g77
aI4
aF0.057134695043565206
aF0.0
aF0.0
asVconsequent
p79
(lp80
g79
aI1
aF0.014283673760891302
aF0.0
aF0.0
asVunwholesome
p81
(lp82
g81
aI1
aF0.0
aF0.026041666666666668
aF0.0
asVmischievous
p83
(lp84
g83
aI2
aF0.028567347521782603
aF0.0
aF0.0
asVnew
p85
(lp86
g85
aI85
aF0.857020425653478
aF0.6510416666666666
aF0.13636363636363635
asVadmiral
p87
(lp88
g87
aI8
aF0.0428510212826739
aF0.13020833333333334
aF0.0
asVtold
p89
(lp90
g89
aI1
aF0.0
aF0.026041666666666668
aF0.0
asVevanescent
p91
(lp92
g91
aI1
aF0.0
aF0.026041666666666668
aF0.0
asVproperest
p93
(lp94
g93
aI2
aF0.014283673760891302
aF0.026041666666666668
aF0.0
asVactive
p95
(lp96
g95
aI28
aF0.24282245393515212
aF0.2864583333333333
aF-0.13333333333333333
asVdry
p97
(lp98
g97
aI6
aF0.057134695043565206
aF0.052083333333333336
aF-0.06666666666666665
asVunobjectionable
p99
(lp100
g99
aI1
aF0.0
aF0.026041666666666668
aF0.0
asVpiercing
p101
(lp102
g101
aI1
aF0.0
aF0.026041666666666668
aF0.0
asVsuitable
p103
(lp104
g103
aI7
aF0.07141836880445651
aF0.052083333333333336
aF0.0
asVsettled
p105
(lp106
g105
aI5
aF0.07141836880445651
aF0.0
aF0.0
asVenvious
p107
(lp108
g107
aI2
aF0.014283673760891302
aF0.026041666666666668
aF0.0
asVsecure
p109
(lp110
g109
aI1
aF0.014283673760891302
aF0.0
aF0.4
asVstray
p111
(lp112
g111
aI1
aF0.0
aF0.026041666666666668
aF0.0
asVuncivil
p113
(lp114
g113
aI1
aF0.0
aF0.026041666666666668
aF-0.7333333333333334
asVtotal
p115
(lp116
g115
aI10
aF0.0857020425653478
aF0.10416666666666667
aF0.0
asVunfixed
p117
(lp118
g117
aI1
aF0.0
aF0.026041666666666668
aF0.0
asVnegative
p119
(lp120
g119
aI2
aF0.028567347521782603
aF0.0
aF-0.3
asVtherefore
p121
(lp122
g121
aI1
aF0.014283673760891302
aF0.0
aF0.0
asVbarbarous
p123
(lp124
g123
aI1
aF0.014283673760891302
aF0.0
aF0.0
asVwary
p125
(lp126
g125
aI1
aF0.0
aF0.026041666666666668
aF-0.5
asVsuccessful
p127
(lp128
g127
aI8
aF0.0857020425653478
aF0.052083333333333336
aF0.0
asVautumnal
p129
(lp130
g129
aI1
aF0.014283673760891302
aF0.0
aF0.0
asVaware
p131
(lp132
g131
aI44
aF0.4142265390658477
aF0.390625
aF0.25
asVgrief
p133
(lp134
g133
aI2
aF0.028567347521782603
aF0.0
aF-0.8
asVwarm
p135
(lp136
g135
aI34
aF0.37137551778317385
aF0.20833333333333334
aF0.6
asVexcellent
p137
(lp138
g137
aI47
aF0.4142265390658477
aF0.46875
aF1.0
asVcontinual
p139
(lp140
g139
aI19
aF0.24282245393515212
aF0.052083333333333336
aF0.0
asVinhabited
p141
(lp142
g141
aI1
aF0.0
aF0.026041666666666668
aF0.0
asVirksome
p143
(lp144
g143
aI2
aF0.014283673760891302
aF0.026041666666666668
aF0.0
asVmisunderstood
p145
(lp146
g145
aI1
aF0.0
aF0.026041666666666668
aF0.0
asVworn
p147
(lp148
g147
aI3
aF0.0428510212826739
aF0.0
aF0.0
asVblooming
p149
(lp150
g149
aI1
aF0.014283673760891302
aF0.0
aF0.0
asVpalpitating
p151
(lp152
g151
aI1
aF0.014283673760891302
aF0.0
aF0.0
asVquarrel
p153
(lp154
g153
aI1
aF0.014283673760891302
aF0.0
aF0.0
asVgive
p155
(lp156
g155
aI1
aF0.014283673760891302
aF0.0
aF0.0
asVunjust
p157
(lp158
g157
aI9
aF0.07141836880445651
aF0.10416666666666667
aF0.0
asVbitterest
p159
(lp160
g159
aI1
aF0.014283673760891302
aF0.0
aF0.0
asVunpretending
p161
(lp162
g161
aI1
aF0.014283673760891302
aF0.0
aF0.0
asVfanciful
p163
(lp164
g163
aI2
aF0.0
aF0.052083333333333336
aF0.0
asVwant
p165
(lp166
g165
aI2
aF0.0
aF0.052083333333333336
aF0.0
asVindifferent
p167
(lp168
g167
aI24
aF0.22853878017426082
aF0.20833333333333334
aF0.0
asVabsolute
p169
(lp170
g169
aI8
aF0.0857020425653478
aF0.052083333333333336
aF0.2
asValienable
p171
(lp172
g171
aI1
aF0.0
aF0.026041666666666668
aF0.0
asVsitting
p173
(lp174
g173
aI1
aF0.014283673760891302
aF0.0
aF0.0
asVfaults
p175
(lp176
g175
aI1
aF0.014283673760891302
aF0.0
aF0.0
asVhot
p177
(lp178
g177
aI15
aF0.1285530638480217
aF0.15625
aF0.25
asVhop
p179
(lp180
g179
aI2
aF0.014283673760891302
aF0.026041666666666668
aF0.0
asVanswer
p181
(lp182
g181
aI5
aF0.07141836880445651
aF0.0
aF0.0
asVordinary
p183
(lp184
g183
aI8
aF0.028567347521782603
aF0.15625
aF-0.25
asVpreferable
p185
(lp186
g185
aI3
aF0.0428510212826739
aF0.0
aF0.0
asVindubitable
p187
(lp188
g187
aI2
aF0.028567347521782603
aF0.0
aF0.0
asVdignified
p189
(lp190
g189
aI6
aF0.028567347521782603
aF0.10416666666666667
aF0.0
asVunderhand
p191
(lp192
g191
aI1
aF0.0
aF0.026041666666666668
aF0.0
asVmodest
p193
(lp194
g193
aI9
aF0.0857020425653478
aF0.078125
aF0.1
asVdestined
p195
(lp196
g195
aI1
aF0.014283673760891302
aF0.0
aF0.0
asVarch
p197
(lp198
g197
aI2
aF0.028567347521782603
aF0.0
aF0.0
asVexecrable
p199
(lp200
g199
aI1
aF0.014283673760891302
aF0.0
aF0.0
asVattempt
p201
(lp202
g201
aI2
aF0.014283673760891302
aF0.026041666666666668
aF0.0
asVthird
p203
(lp204
g203
aI18
aF0.18568775889158692
aF0.13020833333333334
aF0.0
asVhasty
p205
(lp206
g205
aI13
aF0.14283673760891302
aF0.078125
aF0.0
asVacknowledged
p207
(lp208
g207
aI4
aF0.057134695043565206
aF0.0
aF0.0
asVgreen
p209
(lp210
g209
aI8
aF0.0857020425653478
aF0.052083333333333336
aF-0.2
asVfrequent
p211
(lp212
g211
aI14
aF0.11426939008713041
aF0.15625
aF0.1
asValoud
p213
(lp214
g213
aI1
aF0.0
aF0.026041666666666668
aF0.0
asVunsteady
p215
(lp216
g215
aI4
aF0.028567347521782603
aF0.052083333333333336
aF0.0
asVsurest
p217
(lp218
g217
aI1
aF0.014283673760891302
aF0.0
aF0.0
asVafterwards
p219
(lp220
g219
aI1
aF0.014283673760891302
aF0.0
aF0.0
asVsatisfied
p221
(lp222
g221
aI22
aF0.2142551064133695
aF0.18229166666666666
aF0.5
asVtalkative
p223
(lp224
g223
aI1
aF0.0
aF0.026041666666666668
aF0.0
asVfit
p225
(lp226
g225
aI16
aF0.19997143265247821
aF0.052083333333333336
aF0.4
asVpersonal
p227
(lp228
g227
aI19
aF0.18568775889158692
aF0.15625
aF0.0
asVbetter
p229
(lp230
g229
aI156
aF1.4997857448935867
aF1.328125
aF0.5
asVdiscomfited
p231
(lp232
g231
aI1
aF0.0
aF0.026041666666666668
aF0.0
asVchatty
p233
(lp234
g233
aI2
aF0.014283673760891302
aF0.026041666666666668
aF0.0
asVovercome
p235
(lp236
g235
aI9
aF0.11426939008713041
aF0.026041666666666668
aF0.0
asVgrievous
p237
(lp238
g237
aI5
aF0.0428510212826739
aF0.052083333333333336
aF-0.8
asVunemployed
p239
(lp240
g239
aI1
aF0.014283673760891302
aF0.0
aF0.0
asVsafe
p241
(lp242
g241
aI33
aF0.2713898014569347
aF0.3645833333333333
aF0.5
asVrepulsive
p243
(lp244
g243
aI3
aF0.028567347521782603
aF0.026041666666666668
aF0.0
asVshameful
p245
(lp246
g245
aI5
aF0.057134695043565206
aF0.026041666666666668
aF0.0
asVsixteen
p247
(lp248
g247
aI7
aF0.09998571632623911
aF0.0
aF0.0
asVsilver
p249
(lp250
g249
aI1
aF0.014283673760891302
aF0.0
aF0.0
asVleading
p251
(lp252
g251
aI1
aF0.014283673760891302
aF0.0
aF0.0
asVdroll
p253
(lp254
g253
aI2
aF0.0
aF0.052083333333333336
aF0.0
asVbenevolent
p255
(lp256
g255
aI3
aF0.014283673760891302
aF0.052083333333333336
aF0.0
asVspotless
p257
(lp258
g257
aI1
aF0.014283673760891302
aF0.0
aF0.0
asVcapricious
p259
(lp260
g259
aI1
aF0.014283673760891302
aF0.0
aF0.0
asVaverse
p261
(lp262
g261
aI1
aF0.014283673760891302
aF0.0
aF0.0
asVinterfering
p263
(lp264
g263
aI1
aF0.014283673760891302
aF0.0
aF0.0
asVside
p265
(lp266
g265
aI1
aF0.014283673760891302
aF0.0
aF0.0
asVmean
p267
(lp268
g267
aI6
aF0.057134695043565206
aF0.052083333333333336
aF-0.3125
asVobdurate
p269
(lp270
g269
aI1
aF0.0
aF0.026041666666666668
aF0.0
asVtaught
p271
(lp272
g271
aI2
aF0.028567347521782603
aF0.0
aF0.0
asVfortnight
p273
(lp274
g273
aI3
aF0.028567347521782603
aF0.026041666666666668
aF0.0
asVnavy
p275
(lp276
g275
aI6
aF0.014283673760891302
aF0.13020833333333334
aF0.0
asVdispiriting
p277
(lp278
g277
aI1
aF0.014283673760891302
aF0.0
aF0.0
asVborne
p279
(lp280
g279
aI7
aF0.09998571632623911
aF0.0
aF0.0
asVunbound
p281
(lp282
g281
aI1
aF0.0
aF0.026041666666666668
aF0.0
asVgod
p283
(lp284
g283
aI1
aF0.014283673760891302
aF0.0
aF0.0
asVforty
p285
(lp286
g285
aI3
aF0.014283673760891302
aF0.052083333333333336
aF0.0
asVrevolting
p287
(lp288
g287
aI1
aF0.0
aF0.026041666666666668
aF0.0
asVheavenly
p289
(lp290
g289
aI1
aF0.014283673760891302
aF0.0
aF0.0
asVforth
p291
(lp292
g291
aI4
aF0.014283673760891302
aF0.078125
aF0.0
asVdisinterested
p293
(lp294
g293
aI6
aF0.07141836880445651
aF0.026041666666666668
aF0.0
asVassured
p295
(lp296
g295
aI1
aF0.014283673760891302
aF0.0
aF0.0
asVeternal
p297
(lp298
g297
aI4
aF0.057134695043565206
aF0.0
aF0.0
asVfree
p299
(lp300
g299
aI11
aF0.1285530638480217
aF0.052083333333333336
aF0.4
asVmistress
p301
(lp302
g301
aI1
aF0.014283673760891302
aF0.0
aF0.0
asVcertified
p303
(lp304
g303
aI1
aF0.014283673760891302
aF0.0
aF0.0
asVenormous
p305
(lp306
g305
aI2
aF0.028567347521782603
aF0.0
aF0.0
asVunfulfilled
p307
(lp308
g307
aI1
aF0.014283673760891302
aF0.0
aF0.0
asVconnive
p309
(lp310
g309
aI1
aF0.014283673760891302
aF0.0
aF0.0
asVpresumptive
p311
(lp312
g311
aI1
aF0.0
aF0.026041666666666668
aF0.0
asVspeedy
p313
(lp314
g313
aI4
aF0.057134695043565206
aF0.0
aF0.0
asVhopeless
p315
(lp316
g315
aI4
aF0.028567347521782603
aF0.052083333333333336
aF0.0
asVloud
p317
(lp318
g317
aI7
aF0.07141836880445651
aF0.052083333333333336
aF0.1
asVofficious
p319
(lp320
g319
aI4
aF0.0428510212826739
aF0.026041666666666668
aF0.0
asVencouraging
p321
(lp322
g321
aI8
aF0.0428510212826739
aF0.13020833333333334
aF0.0
asVclamorous
p323
(lp324
g323
aI1
aF0.014283673760891302
aF0.0
aF0.0
asVdiscomposed
p325
(lp326
g325
aI1
aF0.014283673760891302
aF0.0
aF0.0
asVsober
p327
(lp328
g327
aI3
aF0.028567347521782603
aF0.026041666666666668
aF0.0
asVthick
p329
(lp330
g329
aI2
aF0.028567347521782603
aF0.0
aF-0.30000000000000004
asVdwelt
p331
(lp332
g331
aI1
aF0.014283673760891302
aF0.0
aF0.0
asVpardonable
p333
(lp334
g333
aI2
aF0.014283673760891302
aF0.026041666666666668
aF0.0
asVmethodical
p335
(lp336
g335
aI2
aF0.014283673760891302
aF0.026041666666666668
aF0.0
asVtop
p337
(lp338
g337
aI2
aF0.014283673760891302
aF0.026041666666666668
aF0.5
asVprotracted
p339
(lp340
g339
aI1
aF0.0
aF0.026041666666666668
aF0.0
asVtwisted
p341
(lp342
g341
aI1
aF0.014283673760891302
aF0.0
aF-0.5
asVkinder
p343
(lp344
g343
aI6
aF0.07141836880445651
aF0.026041666666666668
aF0.6
asVxiv
p345
(lp346
g345
aI1
aF0.0
aF0.026041666666666668
aF0.0
asVtragic
p347
(lp348
g347
aI2
aF0.014283673760891302
aF0.026041666666666668
aF-0.75
asVinconvenient
p349
(lp350
g349
aI7
aF0.09998571632623911
aF0.0
aF-0.6
asVbitter
p351
(lp352
g351
aI8
aF0.09998571632623911
aF0.026041666666666668
aF-0.1
asVilliterate
p353
(lp354
g353
aI2
aF0.028567347521782603
aF0.0
aF0.0
asVkindest
p355
(lp356
g355
aI5
aF0.07141836880445651
aF0.0
aF0.0
asVwestern
p357
(lp358
g357
aI1
aF0.014283673760891302
aF0.0
aF0.0
asVrequisite
p359
(lp360
g359
aI4
aF0.014283673760891302
aF0.078125
aF0.0
asVpeculiar
p361
(lp362
g361
aI10
aF0.11426939008713041
aF0.052083333333333336
aF0.0
asVcongratulatory
p363
(lp364
g363
aI1
aF0.014283673760891302
aF0.0
aF0.0
asVunsentimental
p365
(lp366
g365
aI1
aF0.014283673760891302
aF0.0
aF0.0
asVenabled
p367
(lp368
g367
aI1
aF0.014283673760891302
aF0.0
aF0.0
asVlikely
p369
(lp370
g369
aI78
aF0.7141836880445651
aF0.7291666666666666
aF0.0
asVfairest
p371
(lp372
g371
aI1
aF0.014283673760891302
aF0.0
aF0.0
asVshower
p373
(lp374
g373
aI1
aF0.014283673760891302
aF0.0
aF0.0
asVidle
p375
(lp376
g375
aI11
aF0.07141836880445651
aF0.15625
aF0.0
asVexclaimed
p377
(lp378
g377
aI1
aF0.0
aF0.026041666666666668
aF0.0
asVdeserving
p379
(lp380
g379
aI3
aF0.028567347521782603
aF0.026041666666666668
aF0.0
asVspoiled
p381
(lp382
g381
aI2
aF0.028567347521782603
aF0.0
aF0.0
asVseminary
p383
(lp384
g383
aI1
aF0.014283673760891302
aF0.0
aF0.0
asVfeeling
p385
(lp386
g385
aI2
aF0.014283673760891302
aF0.026041666666666668
aF0.0
asVran
p387
(lp388
g387
aI1
aF0.014283673760891302
aF0.0
aF0.0
asVmodern
p389
(lp390
g389
aI6
aF0.057134695043565206
aF0.052083333333333336
aF0.2
asVmine
p391
(lp392
g391
aI3
aF0.028567347521782603
aF0.026041666666666668
aF0.0
asVunaffected
p393
(lp394
g393
aI4
aF0.0428510212826739
aF0.026041666666666668
aF-0.05
asVforced
p395
(lp396
g395
aI4
aF0.057134695043565206
aF0.0
aF-0.30000000000000004
asVwholesome
p397
(lp398
g397
aI2
aF0.028567347521782603
aF0.0
aF0.0
asVconvenient
p399
(lp400
g399
aI7
aF0.0857020425653478
aF0.026041666666666668
aF0.0
asVresponsible
p401
(lp402
g401
aI2
aF0.0
aF0.052083333333333336
aF0.2
asVcommunicative
p403
(lp404
g403
aI4
aF0.028567347521782603
aF0.052083333333333336
aF0.0
asVthorough
p405
(lp406
g405
aI11
aF0.1285530638480217
aF0.052083333333333336
aF0.0
asVamusing
p407
(lp408
g407
aI3
aF0.028567347521782603
aF0.026041666666666668
aF0.0
asVlaughed
p409
(lp410
g409
aI1
aF0.014283673760891302
aF0.0
aF0.7
asVconducive
p411
(lp412
g411
aI2
aF0.028567347521782603
aF0.0
aF0.0
asVthough
p413
(lp414
g413
aI4
aF0.057134695043565206
aF0.0
aF0.0
asVobject
p415
(lp416
g415
aI8
aF0.07141836880445651
aF0.078125
aF0.0
asVregular
p417
(lp418
g417
aI22
aF0.2713898014569347
aF0.078125
aF0.0
asVplenty
p419
(lp420
g419
aI4
aF0.057134695043565206
aF0.0
aF0.0
asVphilosophic
p421
(lp422
g421
aI2
aF0.014283673760891302
aF0.026041666666666668
aF0.2
asVinexcusable
p423
(lp424
g423
aI5
aF0.0428510212826739
aF0.052083333333333336
aF0.0
asVglow
p425
(lp426
g425
aI2
aF0.028567347521782603
aF0.0
aF0.0
asVdon
p427
(lp428
g427
aI1
aF0.014283673760891302
aF0.0
aF0.0
asVcalculated
p429
(lp430
g429
aI3
aF0.0428510212826739
aF0.0
aF0.0
asVorderly
p431
(lp432
g431
aI1
aF0.0
aF0.026041666666666668
aF0.0
asVaunt
p433
(lp434
g433
aI1
aF0.0
aF0.026041666666666668
aF0.0
asVunsophisticated
p435
(lp436
g435
aI1
aF0.014283673760891302
aF0.0
aF0.0
asVentertaining
p437
(lp438
g437
aI6
aF0.028567347521782603
aF0.10416666666666667
aF0.5
asVoppress
p439
(lp440
g439
aI2
aF0.028567347521782603
aF0.0
aF0.0
asVqueen
p441
(lp442
g441
aI1
aF0.014283673760891302
aF0.0
aF0.0
asVundue
p443
(lp444
g443
aI2
aF0.0
aF0.052083333333333336
aF0.0
asVnephew
p445
(lp446
g445
aI5
aF0.0428510212826739
aF0.052083333333333336
aF0.0
asVbusy
p447
(lp448
g447
aI24
aF0.2713898014569347
aF0.13020833333333334
aF0.1
asVbookish
p449
(lp450
g449
aI1
aF0.014283673760891302
aF0.0
aF0.0
asVupstairs
p451
(lp452
g451
aI6
aF0.07141836880445651
aF0.026041666666666668
aF0.0
asVjudged
p453
(lp454
g453
aI1
aF0.014283673760891302
aF0.0
aF0.0
asVrich
p455
(lp456
g455
aI24
aF0.1571204113698043
aF0.3385416666666667
aF0.375
asVannounce
p457
(lp458
g457
aI1
aF0.0
aF0.026041666666666668
aF0.0
asVadequate
p459
(lp460
g459
aI1
aF0.014283673760891302
aF0.0
aF0.3333333333333333
asVunassisted
p461
(lp462
g461
aI1
aF0.014283673760891302
aF0.0
aF0.0
asVperceive
p463
(lp464
g463
aI2
aF0.014283673760891302
aF0.026041666666666668
aF0.0
asVpreferred
p465
(lp466
g465
aI1
aF0.0
aF0.026041666666666668
aF0.0
asVslanderous
p467
(lp468
g467
aI1
aF0.014283673760891302
aF0.0
aF0.0
asVhappiest
p469
(lp470
g469
aI8
aF0.09998571632623911
aF0.026041666666666668
aF0.0
asVundressed
p471
(lp472
g471
aI1
aF0.014283673760891302
aF0.0
aF0.0
asVchronological
p473
(lp474
g473
aI1
aF0.0
aF0.026041666666666668
aF0.0
asVbad
p475
(lp476
g475
aI62
aF0.4999285816311955
aF0.703125
aF-0.6999999999999998
asVerroneous
p477
(lp478
g477
aI1
aF0.014283673760891302
aF0.0
aF-0.5
asVunworthy
p479
(lp480
g479
aI11
aF0.0857020425653478
aF0.13020833333333334
aF0.0
asVfair
p481
(lp482
g481
aI34
aF0.3285244965004999
aF0.2864583333333333
aF0.7
asVdiminutive
p483
(lp484
g483
aI2
aF0.028567347521782603
aF0.0
aF0.0
asVliquor
p485
(lp486
g485
aI1
aF0.014283673760891302
aF0.0
aF0.0
asVblameless
p487
(lp488
g487
aI1
aF0.014283673760891302
aF0.0
aF0.0
asVobserved
p489
(lp490
g489
aI4
aF0.028567347521782603
aF0.052083333333333336
aF0.0
asVdecided
p491
(lp492
g491
aI21
aF0.2142551064133695
aF0.15625
aF0.0
asVmiserable
p493
(lp494
g493
aI21
aF0.2142551064133695
aF0.15625
aF-1.0
asVbest
p495
(lp496
g495
aI110
aF0.9570061419797172
aF1.1197916666666667
aF1.0
asVsubject
p497
(lp498
g497
aI8
aF0.07141836880445651
aF0.078125
aF-0.16666666666666666
asVgentleman
p499
(lp500
g499
aI4
aF0.0
aF0.10416666666666667
aF0.0
asVartificial
p501
(lp502
g501
aI5
aF0.0428510212826739
aF0.052083333333333336
aF0.0
asVpaternal
p503
(lp504
g503
aI1
aF0.0
aF0.026041666666666668
aF0.0
asVunable
p505
(lp506
g505
aI25
aF0.28567347521782605
aF0.13020833333333334
aF-0.5
asVunalterable
p507
(lp508
g507
aI2
aF0.014283673760891302
aF0.026041666666666668
aF0.0
asVlazy
p509
(lp510
g509
aI2
aF0.014283673760891302
aF0.026041666666666668
aF-0.25
asVweak
p511
(lp512
g511
aI13
aF0.11426939008713041
aF0.13020833333333334
aF-0.375
asVweary
p513
(lp514
g513
aI3
aF0.028567347521782603
aF0.026041666666666668
aF0.0
asVmotto
p515
(lp516
g515
aI1
aF0.0
aF0.026041666666666668
aF0.0
asVirregular
p517
(lp518
g517
aI1
aF0.014283673760891302
aF0.0
aF0.0
asVill
p519
(lp520
g519
aI42
aF0.45707756034852165
aF0.2604166666666667
aF-0.5
asVestimable
p521
(lp522
g521
aI2
aF0.014283673760891302
aF0.026041666666666668
aF0.0
asVdemanded
p523
(lp524
g523
aI1
aF0.0
aF0.026041666666666668
aF0.0
asVadapted
p525
(lp526
g525
aI1
aF0.014283673760891302
aF0.0
aF0.0
asVsake
p527
(lp528
g527
aI1
aF0.014283673760891302
aF0.0
aF0.0
asVmortified
p529
(lp530
g529
aI5
aF0.0428510212826739
aF0.052083333333333336
aF0.0
asVtough
p531
(lp532
g531
aI5
aF0.0
aF0.13020833333333334
aF-0.3888888888888889
asVvexed
p533
(lp534
g533
aI6
aF0.07141836880445651
aF0.026041666666666668
aF0.0
asVappeared
p535
(lp536
g535
aI3
aF0.0428510212826739
aF0.0
aF0.0
asVvain
p537
(lp538
g537
aI4
aF0.057134695043565206
aF0.0
aF0.0
asVheight
p539
(lp540
g539
aI2
aF0.028567347521782603
aF0.0
aF0.0
asVinquisitive
p541
(lp542
g541
aI1
aF0.0
aF0.026041666666666668
aF0.0
asVinfirm
p543
(lp544
g543
aI2
aF0.014283673760891302
aF0.026041666666666668
aF0.0
asVmajestic
p545
(lp546
g545
aI3
aF0.0428510212826739
aF0.0
aF0.0
asVgratitude
p547
(lp548
g547
aI1
aF0.014283673760891302
aF0.0
aF0.0
asVpetty
p549
(lp550
g549
aI1
aF0.014283673760891302
aF0.0
aF0.0
asVfaltering
p551
(lp552
g551
aI2
aF0.028567347521782603
aF0.0
aF0.0
asVconfident
p553
(lp554
g553
aI6
aF0.057134695043565206
aF0.052083333333333336
aF0.0
asVmuch
p555
(lp556
g555
aI488
aF4.627910298528781
aF4.270833333333333
aF0.2
asVlovely
p557
(lp558
g557
aI9
aF0.09998571632623911
aF0.052083333333333336
aF0.5
asVeasy
p559
(lp560
g559
aI58
aF0.5999142979574347
aF0.4166666666666667
aF0.43333333333333335
asVprosperous
p561
(lp562
g561
aI6
aF0.07141836880445651
aF0.026041666666666668
aF0.0
asVsuppress
p563
(lp564
g563
aI1
aF0.014283673760891302
aF0.0
aF0.0
asVfreehold
p565
(lp566
g565
aI1
aF0.014283673760891302
aF0.0
aF0.0
asVuncommon
p567
(lp568
g567
aI7
aF0.0857020425653478
aF0.026041666666666668
aF0.8
asVinconsolable
p569
(lp570
g569
aI1
aF0.0
aF0.026041666666666668
aF0.0
asVsallow
p571
(lp572
g571
aI1
aF0.014283673760891302
aF0.0
aF0.0
asVgracious
p573
(lp574
g573
aI5
aF0.07141836880445651
aF0.0
aF0.0
asVreciprocal
p575
(lp576
g575
aI1
aF0.014283673760891302
aF0.0
aF0.0
asVtwelvemonth
p577
(lp578
g577
aI2
aF0.014283673760891302
aF0.026041666666666668
aF0.0
asVstrangest
p579
(lp580
g579
aI1
aF0.014283673760891302
aF0.0
aF0.0
asVnear
p581
(lp582
g581
aI12
aF0.11426939008713041
aF0.10416666666666667
aF0.1
asVabrupt
p583
(lp584
g583
aI4
aF0.014283673760891302
aF0.078125
aF-0.125
asVwonted
p585
(lp586
g585
aI3
aF0.028567347521782603
aF0.026041666666666668
aF0.0
asVeighteen
p587
(lp588
g587
aI4
aF0.0428510212826739
aF0.026041666666666668
aF0.0
asVexterior
p589
(lp590
g589
aI1
aF0.014283673760891302
aF0.0
aF0.0
asVcomparative
p591
(lp592
g591
aI2
aF0.028567347521782603
aF0.0
aF0.0
asVgrown
p593
(lp594
g593
aI6
aF0.0428510212826739
aF0.078125
aF0.0
asVbilious
p595
(lp596
g595
aI3
aF0.0
aF0.078125
aF0.0
asVparish
p597
(lp598
g597
aI6
aF0.014283673760891302
aF0.13020833333333334
aF0.0
asVfatal
p599
(lp600
g599
aI4
aF0.0428510212826739
aF0.026041666666666668
aF0.0
asVunfortunate
p601
(lp602
g601
aI23
aF0.22853878017426082
aF0.18229166666666666
aF-0.5
asVseveral
p603
(lp604
g603
aI45
aF0.39994286530495643
aF0.4427083333333333
aF0.0
asVindependent
p605
(lp606
g605
aI11
aF0.0857020425653478
aF0.13020833333333334
aF0.0
asVevil
p607
(lp608
g607
aI15
aF0.18568775889158692
aF0.052083333333333336
aF-1.0
asVundaunted
p609
(lp610
g609
aI3
aF0.014283673760891302
aF0.052083333333333336
aF0.0
asVjealous
p611
(lp612
g611
aI10
aF0.09998571632623911
aF0.078125
aF0.0
asVbequest
p613
(lp614
g613
aI1
aF0.0
aF0.026041666666666668
aF0.0
asVepistolary
p615
(lp616
g615
aI1
aF0.014283673760891302
aF0.0
aF0.0
asVthy
p617
(lp618
g617
aI2
aF0.028567347521782603
aF0.0
aF0.0
asVpossessed
p619
(lp620
g619
aI2
aF0.014283673760891302
aF0.026041666666666668
aF0.0
asVhumble
p621
(lp622
g621
aI12
aF0.1714040851306956
aF0.0
aF-0.2
asVunconcerned
p623
(lp624
g623
aI5
aF0.028567347521782603
aF0.078125
aF0.0
asVhearty
p625
(lp626
g625
aI4
aF0.014283673760891302
aF0.078125
aF0.0
asVgreatest
p627
(lp628
g627
aI65
aF0.6427653192401086
aF0.5208333333333334
aF1.0
asVincapable
p629
(lp630
g629
aI6
aF0.057134695043565206
aF0.052083333333333336
aF0.0
asVimpertinent
p631
(lp632
g631
aI10
aF0.07141836880445651
aF0.13020833333333334
aF0.0
asVmusical
p633
(lp634
g633
aI13
aF0.09998571632623911
aF0.15625
aF0.0
asVleft
p635
(lp636
g635
aI1
aF0.014283673760891302
aF0.0
aF0.0
asVdeparted
p637
(lp638
g637
aI2
aF0.028567347521782603
aF0.0
aF0.0
asVproposed
p639
(lp640
g639
aI2
aF0.028567347521782603
aF0.0
aF0.0
asVwarmest
p641
(lp642
g641
aI5
aF0.0428510212826739
aF0.052083333333333336
aF0.0
asVunfair
p643
(lp644
g643
aI1
aF0.014283673760891302
aF0.0
aF-0.5
asVrepose
p645
(lp646
g645
aI1
aF0.014283673760891302
aF0.0
aF0.0
asVfarther
p647
(lp648
g647
aI32
aF0.28567347521782605
aF0.3125
aF0.0
asVhuman
p649
(lp650
g649
aI17
aF0.19997143265247821
aF0.078125
aF0.0
asVprevious
p651
(lp652
g651
aI13
aF0.1285530638480217
aF0.10416666666666667
aF-0.16666666666666666
asVpecuniary
p653
(lp654
g653
aI1
aF0.0
aF0.026041666666666668
aF0.0
asVregarded
p655
(lp656
g655
aI2
aF0.014283673760891302
aF0.026041666666666668
aF0.0
asVexplanatory
p657
(lp658
g657
aI1
aF0.014283673760891302
aF0.0
aF0.0
asVunfounded
p659
(lp660
g659
aI4
aF0.057134695043565206
aF0.0
aF0.0
asVma'am
p661
(lp662
g661
aI1
aF0.0
aF0.026041666666666668
aF0.0
asVspread
p663
(lp664
g663
aI2
aF0.014283673760891302
aF0.026041666666666668
aF0.0
asVinnocent
p665
(lp666
g665
aI5
aF0.07141836880445651
aF0.0
aF0.5
asVpitiful
p667
(lp668
g667
aI7
aF0.07141836880445651
aF0.052083333333333336
aF0.0
asVtolerable
p669
(lp670
g669
aI20
aF0.19997143265247821
aF0.15625
aF0.0
asVsubmissive
p671
(lp672
g671
aI3
aF0.0428510212826739
aF0.0
aF0.0
asVinvoluntary
p673
(lp674
g673
aI2
aF0.014283673760891302
aF0.026041666666666668
aF0.0
asVpossible
p675
(lp676
g675
aI128
aF1.3140979860019997
aF0.9375
aF0.0
asVauspicious
p677
(lp678
g677
aI1
aF0.014283673760891302
aF0.0
aF0.0
asVdiscreet
p679
(lp680
g679
aI1
aF0.014283673760891302
aF0.0
aF0.0
asVburnt
p681
(lp682
g681
aI1
aF0.0
aF0.026041666666666668
aF0.0
asVscruple
p683
(lp684
g683
aI1
aF0.0
aF0.026041666666666668
aF0.0
asVvisible
p685
(lp686
g685
aI3
aF0.0428510212826739
aF0.0
aF0.0
asVshaped
p687
(lp688
g687
aI1
aF0.0
aF0.026041666666666668
aF0.0
asVunnecessary
p689
(lp690
g689
aI16
aF0.19997143265247821
aF0.052083333333333336
aF-0.4
asVhung
p691
(lp692
g691
aI1
aF0.0
aF0.026041666666666668
aF0.0
asVinvaluable
p693
(lp694
g693
aI2
aF0.028567347521782603
aF0.0
aF0.0
asVbeneficial
p695
(lp696
g695
aI3
aF0.0428510212826739
aF0.0
aF0.0
asVright
p697
(lp698
g697
aI47
aF0.47136123410941294
aF0.3645833333333333
aF0.2857142857142857
asVold
p699
(lp700
g699
aI140
aF1.2283959434366518
aF1.40625
aF0.1
asVelderly
p701
(lp702
g701
aI3
aF0.0428510212826739
aF0.0
aF0.0
asVcaptive
p703
(lp704
g703
aI1
aF0.014283673760891302
aF0.0
aF0.2
asVdear
p705
(lp706
g705
aI230
aF2.3139551492643906
aF1.7708333333333333
aF0.0
asValtered
p707
(lp708
g707
aI9
aF0.057134695043565206
aF0.13020833333333334
aF0.0
asVtheatrical
p709
(lp710
g709
aI5
aF0.0
aF0.13020833333333334
aF0.0
asVbottom
p711
(lp712
g711
aI1
aF0.014283673760891302
aF0.0
aF0.0
asVunavoidable
p713
(lp714
g713
aI3
aF0.028567347521782603
aF0.026041666666666668
aF0.0
asVbold
p715
(lp716
g715
aI3
aF0.0
aF0.078125
aF0.3333333333333333
asVidolized
p717
(lp718
g717
aI1
aF0.014283673760891302
aF0.0
aF0.0
asVshaken
p719
(lp720
g719
aI2
aF0.014283673760891302
aF0.026041666666666668
aF0.0
asVtheirs
p721
(lp722
g721
aI3
aF0.0428510212826739
aF0.0
aF0.0
asVrecollect
p723
(lp724
g723
aI1
aF0.0
aF0.026041666666666668
aF0.0
asVtreble
p725
(lp726
g725
aI1
aF0.014283673760891302
aF0.0
aF0.0
asVlief
p727
(lp728
g727
aI1
aF0.014283673760891302
aF0.0
aF0.0
asVcivil
p729
(lp730
g729
aI28
aF0.29995714897871734
aF0.18229166666666666
aF0.0
asVdisentangled
p731
(lp732
g731
aI1
aF0.0
aF0.026041666666666668
aF0.0
asVintellectual
p733
(lp734
g733
aI3
aF0.0428510212826739
aF0.0
aF0.3
asVdown
p735
(lp736
g735
aI2
aF0.014283673760891302
aF0.026041666666666668
aF-0.15555555555555559
asVthankful
p737
(lp738
g737
aI9
aF0.0857020425653478
aF0.078125
aF0.0
asVformidable
p739
(lp740
g739
aI6
aF0.0857020425653478
aF0.0
aF0.0
asVrefined
p741
(lp742
g741
aI2
aF0.028567347521782603
aF0.0
aF0.0
asVwan
p743
(lp744
g743
aI1
aF0.014283673760891302
aF0.0
aF-0.2
asVindispensable
p745
(lp746
g745
aI4
aF0.0428510212826739
aF0.026041666666666668
aF0.4
asVjealousy
p747
(lp748
g747
aI1
aF0.014283673760891302
aF0.0
aF0.0
asVtame
p749
(lp750
g749
aI1
aF0.014283673760891302
aF0.0
aF-0.21666666666666667
asVinfluencing
p751
(lp752
g751
aI1
aF0.014283673760891302
aF0.0
aF0.0
asVhappy
p753
(lp754
g753
aI211
aF2.2139694329381516
aF1.4583333333333333
aF0.8
asVlowest
p755
(lp756
g755
aI2
aF0.028567347521782603
aF0.0
aF0.0
asVfeminine
p757
(lp758
g757
aI3
aF0.028567347521782603
aF0.026041666666666668
aF0.0
asVhear
p759
(lp760
g759
aI2
aF0.014283673760891302
aF0.026041666666666668
aF0.0
asVdead
p761
(lp762
g761
aI14
aF0.1285530638480217
aF0.13020833333333334
aF-0.2
asVastonished
p763
(lp764
g763
aI7
aF0.07141836880445651
aF0.052083333333333336
aF0.0
asVimprudent
p765
(lp766
g765
aI5
aF0.0428510212826739
aF0.052083333333333336
aF0.0
asVremoved
p767
(lp768
g767
aI1
aF0.014283673760891302
aF0.0
aF0.0
asVtrue
p769
(lp770
g769
aI62
aF0.5999142979574347
aF0.5208333333333334
aF0.35
asVabsent
p771
(lp772
g771
aI8
aF0.11426939008713041
aF0.0
aF0.0
asVprotestant
p773
(lp774
g773
aI1
aF0.014283673760891302
aF0.0
aF0.0
asVurgent
p775
(lp776
g775
aI6
aF0.07141836880445651
aF0.026041666666666668
aF0.0
asVutmost
p777
(lp778
g777
aI13
aF0.1285530638480217
aF0.10416666666666667
aF0.0
asVattached
p779
(lp780
g779
aI5
aF0.057134695043565206
aF0.026041666666666668
aF0.0
asVunvarying
p781
(lp782
g781
aI2
aF0.014283673760891302
aF0.026041666666666668
aF0.0
asVinsincere
p783
(lp784
g783
aI1
aF0.0
aF0.026041666666666668
aF0.0
asVunanimous
p785
(lp786
g785
aI1
aF0.014283673760891302
aF0.0
aF0.0
asVliberal
p787
(lp788
g787
aI9
aF0.0428510212826739
aF0.15625
aF0.0
asVscandalous
p789
(lp790
g789
aI2
aF0.014283673760891302
aF0.026041666666666668
aF0.0
asVsteady
p791
(lp792
g791
aI26
aF0.24282245393515212
aF0.234375
aF0.16666666666666666
asVwretched
p793
(lp794
g793
aI13
aF0.0857020425653478
aF0.18229166666666666
aF0.0
asVapoplectic
p795
(lp796
g795
aI1
aF0.0
aF0.026041666666666668
aF0.0
asVpernicious
p797
(lp798
g797
aI1
aF0.014283673760891302
aF0.0
aF0.0
asVinjurious
p799
(lp800
g799
aI1
aF0.0
aF0.026041666666666668
aF0.0
asVoutstretched
p801
(lp802
g801
aI1
aF0.014283673760891302
aF0.0
aF0.0
asVfaithful
p803
(lp804
g803
aI3
aF0.0428510212826739
aF0.0
aF0.0
asVauthoritative
p805
(lp806
g805
aI1
aF0.014283673760891302
aF0.0
aF0.3
asVwhereas
p807
(lp808
g807
aI1
aF0.0
aF0.026041666666666668
aF0.0
asVcircumstanced
p809
(lp810
g809
aI1
aF0.014283673760891302
aF0.0
aF0.0
asVindigent
p811
(lp812
g811
aI1
aF0.014283673760891302
aF0.0
aF0.0
asVambitious
p813
(lp814
g813
aI3
aF0.0428510212826739
aF0.0
aF0.25
asVunwilling
p815
(lp816
g815
aI17
aF0.14283673760891302
aF0.18229166666666666
aF0.0
asVirresistible
p817
(lp818
g817
aI5
aF0.0428510212826739
aF0.052083333333333336
aF0.0
asVsuperfluous
p819
(lp820
g819
aI1
aF0.014283673760891302
aF0.0
aF0.0
asVtardy
p821
(lp822
g821
aI1
aF0.0
aF0.026041666666666668
aF0.0
asVwelcome
p823
(lp824
g823
aI25
aF0.19997143265247821
aF0.2864583333333333
aF0.8
asVuniformly
p825
(lp826
g825
aI2
aF0.028567347521782603
aF0.0
aF0.0
asVpolite
p827
(lp828
g827
aI7
aF0.09998571632623911
aF0.0
aF0.0
asVunwell
p829
(lp830
g829
aI8
aF0.11426939008713041
aF0.0
aF0.0
asVassiduous
p831
(lp832
g831
aI1
aF0.0
aF0.026041666666666668
aF0.0
asVdullest
p833
(lp834
g833
aI1
aF0.0
aF0.026041666666666668
aF0.0
asVinterval
p835
(lp836
g835
aI3
aF0.0428510212826739
aF0.0
aF0.0
asVdaily
p837
(lp838
g837
aI11
aF0.14283673760891302
aF0.026041666666666668
aF0.0
asVloyal
p839
(lp840
g839
aI1
aF0.014283673760891302
aF0.0
aF0.3333333333333333
asVserious
p841
(lp842
g841
aI56
aF0.47136123410941294
aF0.5989583333333334
aF-0.3333333333333333
asVundoubted
p843
(lp844
g843
aI1
aF0.0
aF0.026041666666666668
aF0.0
asVunprincipled
p845
(lp846
g845
aI1
aF0.014283673760891302
aF0.0
aF0.0
asVgown
p847
(lp848
g847
aI4
aF0.057134695043565206
aF0.0
aF0.0
asVremarkable
p849
(lp850
g849
aI9
aF0.09998571632623911
aF0.052083333333333336
aF0.75
asVeldest
p851
(lp852
g851
aI34
aF0.24282245393515212
aF0.4427083333333333
aF0.0
asVunmixed
p853
(lp854
g853
aI1
aF0.0
aF0.026041666666666668
aF0.0
asVmild
p855
(lp856
g855
aI7
aF0.057134695043565206
aF0.078125
aF0.3333333333333333
asVmile
p857
(lp858
g857
aI3
aF0.0428510212826739
aF0.0
aF0.0
asVgrateful
p859
(lp860
g859
aI28
aF0.28567347521782605
aF0.20833333333333334
aF0.0
asVdevoted
p861
(lp862
g861
aI2
aF0.014283673760891302
aF0.026041666666666668
aF0.0
asVvarnish
p863
(lp864
g863
aI1
aF0.0
aF0.026041666666666668
aF0.0
asVsluggish
p865
(lp866
g865
aI1
aF0.0
aF0.026041666666666668
aF0.0
asVdeceitful
p867
(lp868
g867
aI3
aF0.014283673760891302
aF0.052083333333333336
aF0.0
asVfather
p869
(lp870
g869
aI1
aF0.0
aF0.026041666666666668
aF0.0
asVindolent
p871
(lp872
g871
aI4
aF0.0428510212826739
aF0.026041666666666668
aF0.0
asVunpleasant
p873
(lp874
g873
aI22
aF0.2142551064133695
aF0.18229166666666666
aF-0.6499999999999999
asVdissatisfied
p875
(lp876
g875
aI3
aF0.028567347521782603
aF0.026041666666666668
aF0.0
asVbrown
p877
(lp878
g877
aI2
aF0.028567347521782603
aF0.0
aF0.0
asVexalted
p879
(lp880
g879
aI3
aF0.014283673760891302
aF0.052083333333333336
aF0.0
asVgloomy
p881
(lp882
g881
aI5
aF0.057134695043565206
aF0.026041666666666668
aF0.0
asVrapturous
p883
(lp884
g883
aI4
aF0.0428510212826739
aF0.026041666666666668
aF0.0
asVfatigued
p885
(lp886
g885
aI1
aF0.014283673760891302
aF0.0
aF0.0
asVuneventful
p887
(lp888
g887
aI1
aF0.014283673760891302
aF0.0
aF0.0
asVfullest
p889
(lp890
g889
aI5
aF0.014283673760891302
aF0.10416666666666667
aF0.0
asVexact
p891
(lp892
g891
aI6
aF0.0857020425653478
aF0.0
aF0.25
asVfeeble
p893
(lp894
g893
aI3
aF0.028567347521782603
aF0.026041666666666668
aF-0.5
asVminute
p895
(lp896
g895
aI2
aF0.028567347521782603
aF0.0
aF0.0
asVcool
p897
(lp898
g897
aI12
aF0.09998571632623911
aF0.13020833333333334
aF0.35
asVdim
p899
(lp900
g899
aI1
aF0.014283673760891302
aF0.0
aF0.1
asVnabobs
p901
(lp902
g901
aI1
aF0.0
aF0.026041666666666668
aF0.0
asVtear
p903
(lp904
g903
aI1
aF0.014283673760891302
aF0.0
aF0.0
asVleave
p905
(lp906
g905
aI4
aF0.057134695043565206
aF0.0
aF0.0
asVquick
p907
(lp908
g907
aI29
aF0.29995714897871734
aF0.20833333333333334
aF0.3333333333333333
asVdistasteful
p909
(lp910
g909
aI1
aF0.014283673760891302
aF0.0
aF-0.5
asVbrave
p911
(lp912
g911
aI1
aF0.0
aF0.026041666666666668
aF0.8
asVregret
p913
(lp914
g913
aI2
aF0.028567347521782603
aF0.0
aF0.0
asVinsignificant
p915
(lp916
g915
aI3
aF0.028567347521782603
aF0.026041666666666668
aF0.0
asVsigh
p917
(lp918
g917
aI12
aF0.09998571632623911
aF0.13020833333333334
aF0.0
asVunconnected
p919
(lp920
g919
aI1
aF0.0
aF0.026041666666666668
aF0.0
asVhelpless
p921
(lp922
g921
aI2
aF0.014283673760891302
aF0.026041666666666668
aF0.0
asVcelebrated
p923
(lp924
g923
aI2
aF0.014283673760891302
aF0.026041666666666668
aF0.35
asVcurrent
p925
(lp926
g925
aI1
aF0.014283673760891302
aF0.0
aF0.0
asVunobserved
p927
(lp928
g927
aI1
aF0.014283673760891302
aF0.0
aF0.0
asVunderstanding
p929
(lp930
g929
aI6
aF0.057134695043565206
aF0.052083333333333336
aF0.0
asVenfeebled
p931
(lp932
g931
aI1
aF0.014283673760891302
aF0.0
aF0.0
asVtwentieth
p933
(lp934
g933
aI2
aF0.014283673760891302
aF0.026041666666666668
aF0.0
asValone
p935
(lp936
g935
aI2
aF0.014283673760891302
aF0.026041666666666668
aF0.0
asVdissipated
p937
(lp938
g937
aI1
aF0.0
aF0.026041666666666668
aF0.0
asVsociable
p939
(lp940
g939
aI1
aF0.0
aF0.026041666666666668
aF0.0
asVthirty
p941
(lp942
g941
aI8
aF0.0428510212826739
aF0.13020833333333334
aF0.0
asVhealthy
p943
(lp944
g943
aI4
aF0.057134695043565206
aF0.0
aF0.5
asVstudied
p945
(lp946
g945
aI2
aF0.028567347521782603
aF0.0
aF0.0
asVguilty
p947
(lp948
g947
aI9
aF0.057134695043565206
aF0.13020833333333334
aF-0.5
asVaccomplished
p949
(lp950
g949
aI6
aF0.0857020425653478
aF0.0
aF0.2
asVvitiated
p951
(lp952
g951
aI1
aF0.014283673760891302
aF0.0
aF0.0
asVmatrimonial
p953
(lp954
g953
aI4
aF0.0428510212826739
aF0.026041666666666668
aF0.0
asVretired
p955
(lp956
g955
aI2
aF0.014283673760891302
aF0.026041666666666668
aF0.0
asVmarked
p957
(lp958
g957
aI1
aF0.014283673760891302
aF0.0
aF0.1
asVuphill
p959
(lp960
g959
aI1
aF0.0
aF0.026041666666666668
aF0.0
asVsympathetic
p961
(lp962
g961
aI2
aF0.028567347521782603
aF0.0
aF0.5
asVundergone
p963
(lp964
g963
aI2
aF0.014283673760891302
aF0.026041666666666668
aF0.0
asVdriest
p965
(lp966
g965
aI1
aF0.0
aF0.026041666666666668
aF0.0
asVuntaught
p967
(lp968
g967
aI1
aF0.0
aF0.026041666666666668
aF0.0
asVpositive
p969
(lp970
g969
aI4
aF0.057134695043565206
aF0.0
aF0.22727272727272727
asVangry
p971
(lp972
g971
aI47
aF0.5570632766747607
aF0.20833333333333334
aF-0.5
asVcomplaisant
p973
(lp974
g973
aI1
aF0.014283673760891302
aF0.0
aF0.0
asVpert
p975
(lp976
g975
aI2
aF0.028567347521782603
aF0.0
aF0.0
asVtheoretical
p977
(lp978
g977
aI1
aF0.0
aF0.026041666666666668
aF0.0
asVwicked
p979
(lp980
g979
aI2
aF0.028567347521782603
aF0.0
aF0.0
asVacceptable
p981
(lp982
g981
aI13
aF0.14283673760891302
aF0.078125
aF0.0
asVapparent
p983
(lp984
g983
aI14
aF0.1571204113698043
aF0.078125
aF0.05
asVninny
p985
(lp986
g985
aI1
aF0.0
aF0.026041666666666668
aF0.0
asVodious
p987
(lp988
g987
aI6
aF0.07141836880445651
aF0.026041666666666668
aF0.0
asVignorant
p989
(lp990
g989
aI11
aF0.11426939008713041
aF0.078125
aF0.0
asVeasiest
p991
(lp992
g991
aI3
aF0.0428510212826739
aF0.0
aF0.0
asVindescribable
p993
(lp994
g993
aI2
aF0.014283673760891302
aF0.026041666666666668
aF0.0
asVsoul
p995
(lp996
g995
aI1
aF0.014283673760891302
aF0.0
aF0.0
asVfollowing
p997
(lp998
g997
aI17
aF0.1571204113698043
aF0.15625
aF0.0
asVworthiest
p999
(lp1000
g999
aI1
aF0.0
aF0.026041666666666668
aF0.0
asVnearest
p1001
(lp1002
g1001
aI8
aF0.028567347521782603
aF0.15625
aF0.0
asVcorrupted
p1003
(lp1004
g1003
aI1
aF0.014283673760891302
aF0.0
aF0.0
asVconfused
p1005
(lp1006
g1005
aI3
aF0.028567347521782603
aF0.026041666666666668
aF-0.4
asVheard
p1007
(lp1008
g1007
aI1
aF0.014283673760891302
aF0.0
aF0.0
asVintelligible
p1009
(lp1010
g1009
aI12
aF0.11426939008713041
aF0.10416666666666667
aF0.0
asVproductive
p1011
(lp1012
g1011
aI2
aF0.028567347521782603
aF0.0
aF0.0
asVeloquent
p1013
(lp1014
g1013
aI1
aF0.014283673760891302
aF0.0
aF0.0
asVinarticulate
p1015
(lp1016
g1015
aI1
aF0.014283673760891302
aF0.0
aF-0.1
asVwrite
p1017
(lp1018
g1017
aI2
aF0.0
aF0.052083333333333336
aF0.0
asVtill
p1019
(lp1020
g1019
aI12
aF0.1571204113698043
aF0.026041666666666668
aF0.0
asVpure
p1021
(lp1022
g1021
aI3
aF0.028567347521782603
aF0.026041666666666668
aF0.21428571428571427
asVbeau
p1023
(lp1024
g1023
aI1
aF0.014283673760891302
aF0.0
aF0.0
asVallowable
p1025
(lp1026
g1025
aI8
aF0.0857020425653478
aF0.052083333333333336
aF0.0
asVirrational
p1027
(lp1028
g1027
aI3
aF0.028567347521782603
aF0.026041666666666668
aF0.0
asVimpartial
p1029
(lp1030
g1029
aI1
aF0.014283673760891302
aF0.0
aF0.0
asVneat
p1031
(lp1032
g1031
aI2
aF0.014283673760891302
aF0.026041666666666668
aF0.0
asVunobtrusive
p1033
(lp1034
g1033
aI2
aF0.028567347521782603
aF0.0
aF0.0
asVoutlandish
p1035
(lp1036
g1035
aI1
aF0.014283673760891302
aF0.0
aF0.0
asVmad
p1037
(lp1038
g1037
aI6
aF0.07141836880445651
aF0.026041666666666668
aF0.0
asVsuch
p1039
(lp1040
g1039
aI613
aF6.156263390944151
aF4.739583333333333
aF0.0
asVeighth
p1041
(lp1042
g1041
aI1
aF0.014283673760891302
aF0.0
aF0.0
asVdisagreeable
p1043
(lp1044
g1043
aI23
aF0.19997143265247821
aF0.234375
aF0.0
asVnatural
p1045
(lp1046
g1045
aI95
aF0.9855734895014998
aF0.6770833333333334
aF0.1
asVconscious
p1047
(lp1048
g1047
aI24
aF0.2142551064133695
aF0.234375
aF0.1
asVexplicit
p1049
(lp1050
g1049
aI1
aF0.0
aF0.026041666666666668
aF0.0
asVyielding
p1051
(lp1052
g1051
aI1
aF0.0
aF0.026041666666666668
aF0.0
asVswollen
p1053
(lp1054
g1053
aI1
aF0.014283673760891302
aF0.0
aF0.0
asVtall
p1055
(lp1056
g1055
aI12
aF0.11426939008713041
aF0.10416666666666667
aF0.0
asVunsolicited
p1057
(lp1058
g1057
aI1
aF0.014283673760891302
aF0.0
aF0.0
asVfurnished
p1059
(lp1060
g1059
aI2
aF0.014283673760891302
aF0.026041666666666668
aF0.0
asVgradual
p1061
(lp1062
g1061
aI5
aF0.028567347521782603
aF0.078125
aF0.0
asVpointed
p1063
(lp1064
g1063
aI4
aF0.0428510212826739
aF0.026041666666666668
aF0.0
asVbewitching
p1065
(lp1066
g1065
aI2
aF0.028567347521782603
aF0.0
aF0.7
asVplayful
p1067
(lp1068
g1067
aI5
aF0.0428510212826739
aF0.052083333333333336
aF0.0
asVgenteel
p1069
(lp1070
g1069
aI1
aF0.0
aF0.026041666666666668
aF0.0
asVcold
p1071
(lp1072
g1071
aI37
aF0.3285244965004999
aF0.3645833333333333
aF-0.6
asVirresolute
p1073
(lp1074
g1073
aI2
aF0.014283673760891302
aF0.026041666666666668
aF0.0
asVsolitary
p1075
(lp1076
g1075
aI11
aF0.14283673760891302
aF0.026041666666666668
aF0.0
asVhaughty
p1077
(lp1078
g1077
aI1
aF0.014283673760891302
aF0.0
aF0.0
asVinteresting
p1079
(lp1080
g1079
aI45
aF0.4999285816311955
aF0.2604166666666667
aF0.5
asVcurls
p1081
(lp1082
g1081
aI1
aF0.014283673760891302
aF0.0
aF0.0
asVamazing
p1083
(lp1084
g1083
aI5
aF0.07141836880445651
aF0.0
aF0.6000000000000001
asVspacious
p1085
(lp1086
g1085
aI3
aF0.0428510212826739
aF0.0
aF0.0
asVmain
p1087
(lp1088
g1087
aI3
aF0.028567347521782603
aF0.026041666666666668
aF0.16666666666666666
asVnon
p1089
(lp1090
g1089
aI1
aF0.014283673760891302
aF0.0
aF0.0
asVtruest
p1091
(lp1092
g1091
aI1
aF0.014283673760891302
aF0.0
aF0.0
asVaching
p1093
(lp1094
g1093
aI1
aF0.014283673760891302
aF0.0
aF0.0
asVsooner
p1095
(lp1096
g1095
aI1
aF0.014283673760891302
aF0.0
aF0.0
asVoverpowering
p1097
(lp1098
g1097
aI2
aF0.028567347521782603
aF0.0
aF0.0
asVhale
p1099
(lp1100
g1099
aI1
aF0.0
aF0.026041666666666668
aF0.0
asVhalf
p1101
(lp1102
g1101
aI20
aF0.2142551064133695
aF0.13020833333333334
aF-0.16666666666666666
asVtwilight
p1103
(lp1104
g1103
aI2
aF0.028567347521782603
aF0.0
aF0.0
asVfeverish
p1105
(lp1106
g1105
aI4
aF0.057134695043565206
aF0.0
aF-0.1
asVrespectable
p1107
(lp1108
g1107
aI31
aF0.19997143265247821
aF0.4427083333333333
aF0.5
asVservant
p1109
(lp1110
g1109
aI4
aF0.0428510212826739
aF0.026041666666666668
aF0.0
asVcareless
p1111
(lp1112
g1111
aI6
aF0.028567347521782603
aF0.10416666666666667
aF-0.5
asVsquare
p1113
(lp1114
g1113
aI2
aF0.028567347521782603
aF0.0
aF0.0
asVbeloved
p1115
(lp1116
g1115
aI10
aF0.09998571632623911
aF0.078125
aF0.7
asVtreacherous
p1117
(lp1118
g1117
aI1
aF0.014283673760891302
aF0.0
aF0.0
asVhurried
p1119
(lp1120
g1119
aI3
aF0.014283673760891302
aF0.052083333333333336
aF0.0
asVgoose
p1121
(lp1122
g1121
aI1
aF0.014283673760891302
aF0.0
aF0.0
asVshewn
p1123
(lp1124
g1123
aI3
aF0.0428510212826739
aF0.0
aF0.0
asVirremediable
p1125
(lp1126
g1125
aI1
aF0.0
aF0.026041666666666668
aF0.0
asVapothecary
p1127
(lp1128
g1127
aI2
aF0.028567347521782603
aF0.0
aF0.0
asVgirl
p1129
(lp1130
g1129
aI3
aF0.0428510212826739
aF0.0
aF0.0
asVintended
p1131
(lp1132
g1131
aI4
aF0.028567347521782603
aF0.052083333333333336
aF0.0
asVintercourse
p1133
(lp1134
g1133
aI3
aF0.028567347521782603
aF0.026041666666666668
aF0.0
asVnominal
p1135
(lp1136
g1135
aI1
aF0.014283673760891302
aF0.0
aF0.0
asVrational
p1137
(lp1138
g1137
aI18
aF0.19997143265247821
aF0.10416666666666667
aF0.0
asVruinous
p1139
(lp1140
g1139
aI1
aF0.0
aF0.026041666666666668
aF0.0
asVcorrect
p1141
(lp1142
g1141
aI6
aF0.07141836880445651
aF0.026041666666666668
aF0.0
asVseventh
p1143
(lp1144
g1143
aI1
aF0.0
aF0.026041666666666668
aF0.0
asVquite
p1145
(lp1146
g1145
aI2
aF0.028567347521782603
aF0.0
aF0.0
asVunfriendly
p1147
(lp1148
g1147
aI1
aF0.014283673760891302
aF0.0
aF0.0
asVinevitable
p1149
(lp1150
g1149
aI7
aF0.07141836880445651
aF0.052083333333333336
aF0.0
asVunguarded
p1151
(lp1152
g1151
aI2
aF0.014283673760891302
aF0.026041666666666668
aF0.0
asVhonest
p1153
(lp1154
g1153
aI8
aF0.09998571632623911
aF0.026041666666666668
aF0.6
asVundesirable
p1155
(lp1156
g1155
aI2
aF0.028567347521782603
aF0.0
aF0.0
asVpuny
p1157
(lp1158
g1157
aI1
aF0.014283673760891302
aF0.0
aF0.0
asVfirst
p1159
(lp1160
g1159
aI316
aF3.1709755749178687
aF2.4479166666666665
aF0.25
asVblind
p1161
(lp1162
g1161
aI2
aF0.014283673760891302
aF0.026041666666666668
aF-0.5
asVcheese
p1163
(lp1164
g1163
aI1
aF0.014283673760891302
aF0.0
aF0.0
asVstriking
p1165
(lp1166
g1165
aI10
aF0.11426939008713041
aF0.052083333333333336
aF0.5
asVspoken
p1167
(lp1168
g1167
aI3
aF0.0428510212826739
aF0.0
aF0.0
asVincongruous
p1169
(lp1170
g1169
aI1
aF0.014283673760891302
aF0.0
aF0.0
asVlong
p1171
(lp1172
g1171
aI120
aF1.3855163548064562
aF0.5989583333333334
aF-0.05
asVimpossible
p1173
(lp1174
g1173
aI88
aF0.9712898157406085
aF0.5208333333333334
aF-0.6666666666666666
asVopen
p1175
(lp1176
g1175
aI54
aF0.44279388658763036
aF0.5989583333333334
aF0.0
asVlanguish
p1177
(lp1178
g1177
aI1
aF0.0
aF0.026041666666666668
aF0.0
asVimpetuous
p1179
(lp1180
g1179
aI2
aF0.028567347521782603
aF0.0
aF0.0
asVlittle
p1181
(lp1182
g1181
aI474
aF4.813598057420369
aF3.5677083333333335
aF-0.1875
asVthoughtless
p1183
(lp1184
g1183
aI3
aF0.014283673760891302
aF0.052083333333333336
aF0.0
asVsilent
p1185
(lp1186
g1185
aI54
aF0.5427796029138694
aF0.4166666666666667
aF0.0
asVunstudied
p1187
(lp1188
g1187
aI2
aF0.014283673760891302
aF0.026041666666666668
aF0.0
asVunselfish
p1189
(lp1190
g1189
aI1
aF0.014283673760891302
aF0.0
aF0.0
asVslept
p1191
(lp1192
g1191
aI1
aF0.014283673760891302
aF0.0
aF0.0
asVfortuitous
p1193
(lp1194
g1193
aI1
aF0.014283673760891302
aF0.0
aF0.0
asVwhite
p1195
(lp1196
g1195
aI17
aF0.18568775889158692
aF0.10416666666666667
aF0.0
asVspeaking
p1197
(lp1198
g1197
aI4
aF0.028567347521782603
aF0.052083333333333336
aF0.0
asVartless
p1199
(lp1200
g1199
aI2
aF0.028567347521782603
aF0.0
aF0.0
asVhurtful
p1201
(lp1202
g1201
aI1
aF0.014283673760891302
aF0.0
aF0.0
asVinexpressible
p1203
(lp1204
g1203
aI1
aF0.0
aF0.026041666666666668
aF0.05
asVridiculous
p1205
(lp1206
g1205
aI16
aF0.14283673760891302
aF0.15625
aF-0.3333333333333333
asVtoilsome
p1207
(lp1208
g1207
aI1
aF0.014283673760891302
aF0.0
aF0.0
asVwide
p1209
(lp1210
g1209
aI4
aF0.028567347521782603
aF0.052083333333333336
aF-0.1
asVdepressed
p1211
(lp1212
g1211
aI3
aF0.028567347521782603
aF0.026041666666666668
aF0.0
asVrival
p1213
(lp1214
g1213
aI2
aF0.028567347521782603
aF0.0
aF0.0
asVfuture
p1215
(lp1216
g1215
aI18
aF0.19997143265247821
aF0.10416666666666667
aF0.0
asVtroublesome
p1217
(lp1218
g1217
aI6
aF0.028567347521782603
aF0.10416666666666667
aF0.0
asVturned
p1219
(lp1220
g1219
aI2
aF0.028567347521782603
aF0.0
aF0.0
asVsad
p1221
(lp1222
g1221
aI26
aF0.2713898014569347
aF0.18229166666666666
aF-0.5
asVwinding
p1223
(lp1224
g1223
aI1
aF0.014283673760891302
aF0.0
aF0.0
asVuninterrupted
p1225
(lp1226
g1225
aI2
aF0.014283673760891302
aF0.026041666666666668
aF0.0
asVoccupied
p1227
(lp1228
g1227
aI3
aF0.0428510212826739
aF0.0
aF0.0
asVfashionable
p1229
(lp1230
g1229
aI5
aF0.07141836880445651
aF0.0
aF0.0
asVaside
p1231
(lp1232
g1231
aI1
aF0.014283673760891302
aF0.0
aF0.0
asVblunt
p1233
(lp1234
g1233
aI1
aF0.0
aF0.026041666666666668
aF0.0
asVgaining
p1235
(lp1236
g1235
aI1
aF0.014283673760891302
aF0.0
aF0.0
asVsure
p1237
(lp1238
g1237
aI222
aF2.0711326953292386
aF2.0052083333333335
aF0.5
asVamiable
p1239
(lp1240
g1239
aI56
aF0.4142265390658477
aF0.703125
aF0.0
asVopposite
p1241
(lp1242
g1241
aI4
aF0.0428510212826739
aF0.026041666666666668
aF0.0
asVsyllable
p1243
(lp1244
g1243
aI9
aF0.0857020425653478
aF0.078125
aF0.0
asVroused
p1245
(lp1246
g1245
aI1
aF0.0
aF0.026041666666666668
aF0.0
asVentreaty
p1247
(lp1248
g1247
aI1
aF0.014283673760891302
aF0.0
aF0.0
asVprinted
p1249
(lp1250
g1249
aI1
aF0.014283673760891302
aF0.0
aF0.0
asVcreditable
p1251
(lp1252
g1251
aI4
aF0.057134695043565206
aF0.0
aF0.0
asVproud
p1253
(lp1254
g1253
aI8
aF0.057134695043565206
aF0.10416666666666667
aF0.8
asVblockhead
p1255
(lp1256
g1255
aI1
aF0.014283673760891302
aF0.0
aF0.0
asVhungry
p1257
(lp1258
g1257
aI2
aF0.014283673760891302
aF0.026041666666666668
aF0.0
asVtooth
p1259
(lp1260
g1259
aI1
aF0.014283673760891302
aF0.0
aF0.0
asVsubsequent
p1261
(lp1262
g1261
aI4
aF0.057134695043565206
aF0.0
aF0.0
asVuncle
p1263
(lp1264
g1263
aI1
aF0.014283673760891302
aF0.0
aF0.0
asVwine
p1265
(lp1266
g1265
aI1
aF0.0
aF0.026041666666666668
aF0.0
asVprecise
p1267
(lp1268
g1267
aI3
aF0.014283673760891302
aF0.052083333333333336
aF0.0
asVcheap
p1269
(lp1270
g1269
aI5
aF0.0428510212826739
aF0.052083333333333336
aF0.4
asVfifty
p1271
(lp1272
g1271
aI8
aF0.0428510212826739
aF0.13020833333333334
aF0.0
asVupright
p1273
(lp1274
g1273
aI6
aF0.07141836880445651
aF0.026041666666666668
aF0.0
asVbright
p1275
(lp1276
g1275
aI6
aF0.07141836880445651
aF0.026041666666666668
aF0.7000000000000001
asVinconsistent
p1277
(lp1278
g1277
aI1
aF0.014283673760891302
aF0.0
aF0.0
asVscarce
p1279
(lp1280
g1279
aI3
aF0.028567347521782603
aF0.026041666666666668
aF0.0
asVfifth
p1281
(lp1282
g1281
aI1
aF0.0
aF0.026041666666666668
aF0.0
asVslow
p1283
(lp1284
g1283
aI6
aF0.0857020425653478
aF0.0
aF-0.30000000000000004
asVunkind
p1285
(lp1286
g1285
aI11
aF0.1571204113698043
aF0.0
aF0.0
asVconsiderable
p1287
(lp1288
g1287
aI32
aF0.2142551064133695
aF0.4427083333333333
aF0.1
asVonly
p1289
(lp1290
g1289
aI97
aF0.9855734895014998
aF0.7291666666666666
aF0.0
asVblack
p1291
(lp1292
g1291
aI9
aF0.0428510212826739
aF0.15625
aF-0.16666666666666666
asVuppermost
p1293
(lp1294
g1293
aI2
aF0.028567347521782603
aF0.0
aF0.0
asVguarded
p1295
(lp1296
g1295
aI3
aF0.028567347521782603
aF0.026041666666666668
aF0.0
asVdissimilar
p1297
(lp1298
g1297
aI1
aF0.014283673760891302
aF0.0
aF0.0
asVaccordant
p1299
(lp1300
g1299
aI3
aF0.0428510212826739
aF0.0
aF0.0
asVbroadest
p1301
(lp1302
g1301
aI2
aF0.028567347521782603
aF0.0
aF0.0
asVunimportant
p1303
(lp1304
g1303
aI2
aF0.014283673760891302
aF0.026041666666666668
aF-0.4
asVcannot
p1305
(lp1306
g1305
aI5
aF0.0428510212826739
aF0.052083333333333336
aF0.0
asVclearest
p1307
(lp1308
g1307
aI1
aF0.014283673760891302
aF0.0
aF0.0
asVprime
p1309
(lp1310
g1309
aI4
aF0.0428510212826739
aF0.026041666666666668
aF0.0
asVkeenly
p1311
(lp1312
g1311
aI1
aF0.014283673760891302
aF0.0
aF0.0
asVeffectual
p1313
(lp1314
g1313
aI3
aF0.014283673760891302
aF0.052083333333333336
aF0.0
asVstupid
p1315
(lp1316
g1315
aI11
aF0.1285530638480217
aF0.052083333333333336
aF-0.7999999999999999
asVliable
p1317
(lp1318
g1317
aI8
aF0.0857020425653478
aF0.052083333333333336
aF-0.1
asVconcert
p1319
(lp1320
g1319
aI1
aF0.014283673760891302
aF0.0
aF0.0
asVrelative
p1321
(lp1322
g1321
aI4
aF0.028567347521782603
aF0.052083333333333336
aF0.0
asVunfit
p1323
(lp1324
g1323
aI7
aF0.0857020425653478
aF0.026041666666666668
aF0.0
asVasleep
p1325
(lp1326
g1325
aI3
aF0.0428510212826739
aF0.0
aF0.0
asVobliging
p1327
(lp1328
g1327
aI10
aF0.11426939008713041
aF0.052083333333333336
aF0.0
asVprofessed
p1329
(lp1330
g1329
aI4
aF0.0428510212826739
aF0.026041666666666668
aF0.0
asVwettest
p1331
(lp1332
g1331
aI1
aF0.014283673760891302
aF0.0
aF0.0
asVvoluntary
p1333
(lp1334
g1333
aI3
aF0.0428510212826739
aF0.0
aF0.0
asVsteadfast
p1335
(lp1336
g1335
aI1
aF0.014283673760891302
aF0.0
aF0.4
asVunabated
p1337
(lp1338
g1337
aI1
aF0.0
aF0.026041666666666668
aF0.0
asValarming
p1339
(lp1340
g1339
aI11
aF0.0857020425653478
aF0.13020833333333334
aF-0.1
asVfather's
p1341
(lp1342
g1341
aI2
aF0.014283673760891302
aF0.026041666666666668
aF0.0
asVenough
p1343
(lp1344
g1343
aI51
aF0.5142122553920868
aF0.390625
aF0.0
asVostensible
p1345
(lp1346
g1345
aI1
aF0.0
aF0.026041666666666668
aF0.0
asVfearless
p1347
(lp1348
g1347
aI4
aF0.0428510212826739
aF0.026041666666666668
aF0.0
asVjustified
p1349
(lp1350
g1349
aI5
aF0.07141836880445651
aF0.0
aF0.4
asVilliberal
p1351
(lp1352
g1351
aI3
aF0.014283673760891302
aF0.052083333333333336
aF0.0
asVarrival
p1353
(lp1354
g1353
aI3
aF0.0428510212826739
aF0.0
aF0.0
asVmultiplied
p1355
(lp1356
g1355
aI2
aF0.028567347521782603
aF0.0
aF0.0
asVcontrollable
p1357
(lp1358
g1357
aI1
aF0.014283673760891302
aF0.0
aF0.0
asVprettiest
p1359
(lp1360
g1359
aI2
aF0.028567347521782603
aF0.0
aF0.0
asVunpremeditated
p1361
(lp1362
g1361
aI2
aF0.028567347521782603
aF0.0
aF0.0
asVrapacious
p1363
(lp1364
g1363
aI1
aF0.014283673760891302
aF0.0
aF0.0
asVdisdainful
p1365
(lp1366
g1365
aI1
aF0.0
aF0.026041666666666668
aF0.0
asVspare
p1367
(lp1368
g1367
aI8
aF0.07141836880445651
aF0.078125
aF0.0
asVdutiful
p1369
(lp1370
g1369
aI2
aF0.014283673760891302
aF0.026041666666666668
aF0.0
asVcome
p1371
(lp1372
g1371
aI6
aF0.057134695043565206
aF0.052083333333333336
aF0.0
asVprivy
p1373
(lp1374
g1373
aI1
aF0.014283673760891302
aF0.0
aF0.0
asVtractable
p1375
(lp1376
g1375
aI1
aF0.0
aF0.026041666666666668
aF0.0
asVmany
p1377
(lp1378
g1377
aI224
aF2.08541636909013
aF2.03125
aF0.5
asVunspoilt
p1379
(lp1380
g1379
aI1
aF0.0
aF0.026041666666666668
aF0.0
asVquiet
p1381
(lp1382
g1381
aI43
aF0.428510212826739
aF0.3385416666666667
aF0.0
asVindelicate
p1383
(lp1384
g1383
aI4
aF0.028567347521782603
aF0.052083333333333336
aF0.0
asVriddle
p1385
(lp1386
g1385
aI2
aF0.014283673760891302
aF0.026041666666666668
aF0.0
asVmerry
p1387
(lp1388
g1387
aI3
aF0.0428510212826739
aF0.0
aF0.0
asVunquiet
p1389
(lp1390
g1389
aI1
aF0.014283673760891302
aF0.0
aF0.0
asVconstant
p1391
(lp1392
g1391
aI29
aF0.2713898014569347
aF0.2604166666666667
aF0.0
asVlaudable
p1393
(lp1394
g1393
aI1
aF0.0
aF0.026041666666666668
aF0.0
asVsensible
p1395
(lp1396
g1395
aI53
aF0.3428081702613912
aF0.7552083333333334
aF0.0
asVunusual
p1397
(lp1398
g1397
aI11
aF0.09998571632623911
aF0.10416666666666667
aF0.0
asVforbearing
p1399
(lp1400
g1399
aI2
aF0.014283673760891302
aF0.026041666666666668
aF0.0
asVcapable
p1401
(lp1402
g1401
aI32
aF0.3142408227396086
aF0.2604166666666667
aF0.2
asVinformed
p1403
(lp1404
g1403
aI2
aF0.014283673760891302
aF0.026041666666666668
aF0.0
asVthousand
p1405
(lp1406
g1405
aI7
aF0.09998571632623911
aF0.0
aF0.0
asVhomely
p1407
(lp1408
g1407
aI1
aF0.0
aF0.026041666666666668
aF0.0
asVunfledged
p1409
(lp1410
g1409
aI1
aF0.014283673760891302
aF0.0
aF0.0
asVprecipitate
p1411
(lp1412
g1411
aI1
aF0.014283673760891302
aF0.0
aF0.0
asVinstant
p1413
(lp1414
g1413
aI12
aF0.1285530638480217
aF0.078125
aF0.0
asVcareful
p1415
(lp1416
g1415
aI6
aF0.07141836880445651
aF0.026041666666666668
aF-0.1
asVformer
p1417
(lp1418
g1417
aI61
aF0.6999000142836738
aF0.3125
aF0.0
asVcountless
p1419
(lp1420
g1419
aI1
aF0.014283673760891302
aF0.0
aF0.0
asVsound
p1421
(lp1422
g1421
aI2
aF0.028567347521782603
aF0.0
aF0.4
asVcast
p1423
(lp1424
g1423
aI1
aF0.014283673760891302
aF0.0
aF0.0
asVpromising
p1425
(lp1426
g1425
aI8
aF0.057134695043565206
aF0.10416666666666667
aF0.0
asVimplacable
p1427
(lp1428
g1427
aI1
aF0.0
aF0.026041666666666668
aF0.0
asVunsatisfactory
p1429
(lp1430
g1429
aI2
aF0.014283673760891302
aF0.026041666666666668
aF0.0
asVsincere
p1431
(lp1432
g1431
aI7
aF0.07141836880445651
aF0.052083333333333336
aF0.5
asVunwise
p1433
(lp1434
g1433
aI1
aF0.0
aF0.026041666666666668
aF0.0
asVengaged
p1435
(lp1436
g1435
aI5
aF0.028567347521782603
aF0.078125
aF0.0
asVsprained
p1437
(lp1438
g1437
aI1
aF0.014283673760891302
aF0.0
aF0.0
asVsudden
p1439
(lp1440
g1439
aI32
aF0.28567347521782605
aF0.3125
aF0.0
asVchoicest
p1441
(lp1442
g1441
aI1
aF0.014283673760891302
aF0.0
aF0.0
asVunreserved
p1443
(lp1444
g1443
aI2
aF0.0
aF0.052083333333333336
aF0.0
asVeveryday
p1445
(lp1446
g1445
aI3
aF0.028567347521782603
aF0.026041666666666668
aF-0.2
asVdifferent
p1447
(lp1448
g1447
aI71
aF0.6999000142836738
aF0.5729166666666666
aF0.0
asVresentful
p1449
(lp1450
g1449
aI2
aF0.028567347521782603
aF0.0
aF0.0
asVharsh
p1451
(lp1452
g1451
aI2
aF0.028567347521782603
aF0.0
aF-0.2
asVsame
p1453
(lp1454
g1453
aI199
aF1.8711612626767604
aF1.7708333333333333
aF0.0
asVscrubby
p1455
(lp1456
g1455
aI1
aF0.014283673760891302
aF0.0
aF0.0
asVagitated
p1457
(lp1458
g1457
aI7
aF0.0857020425653478
aF0.026041666666666668
aF0.0
asVunperceived
p1459
(lp1460
g1459
aI1
aF0.014283673760891302
aF0.0
aF0.0
asVnoble
p1461
(lp1462
g1461
aI22
aF0.11426939008713041
aF0.3645833333333333
aF0.6
asVdelicate
p1463
(lp1464
g1463
aI14
aF0.1285530638480217
aF0.13020833333333334
aF-0.3
asVunqualified
p1465
(lp1466
g1465
aI2
aF0.014283673760891302
aF0.026041666666666668
aF0.0
asVunmanageable
p1467
(lp1468
g1467
aI6
aF0.0428510212826739
aF0.078125
aF0.0
asVvacant
p1469
(lp1470
g1469
aI4
aF0.028567347521782603
aF0.052083333333333336
aF0.0
asVreward
p1471
(lp1472
g1471
aI1
aF0.014283673760891302
aF0.0
aF0.0
asVyearly
p1473
(lp1474
g1473
aI1
aF0.014283673760891302
aF0.0
aF0.0
asVdiffident
p1475
(lp1476
g1475
aI2
aF0.014283673760891302
aF0.026041666666666668
aF-0.2
asVstoutest
p1477
(lp1478
g1477
aI1
aF0.014283673760891302
aF0.0
aF0.0
asVninth
p1479
(lp1480
g1479
aI3
aF0.014283673760891302
aF0.052083333333333336
aF0.0
asVviolent
p1481
(lp1482
g1481
aI17
aF0.18568775889158692
aF0.10416666666666667
aF-0.8
asVreputable
p1483
(lp1484
g1483
aI1
aF0.014283673760891302
aF0.0
aF0.5
asVtouch
p1485
(lp1486
g1485
aI1
aF0.014283673760891302
aF0.0
aF0.0
asVweekly
p1487
(lp1488
g1487
aI4
aF0.0428510212826739
aF0.026041666666666668
aF0.0
asVunceremonious
p1489
(lp1490
g1489
aI1
aF0.014283673760891302
aF0.0
aF0.0
asVdownright
p1491
(lp1492
g1491
aI2
aF0.028567347521782603
aF0.0
aF0.0
asVgrammatical
p1493
(lp1494
g1493
aI1
aF0.0
aF0.026041666666666668
aF0.0
asVexcept
p1495
(lp1496
g1495
aI1
aF0.014283673760891302
aF0.0
aF0.0
asVverse
p1497
(lp1498
g1497
aI1
aF0.014283673760891302
aF0.0
aF0.0
asVstruck
p1499
(lp1500
g1499
aI5
aF0.07141836880445651
aF0.0
aF0.0
asVjoyful
p1501
(lp1502
g1501
aI10
aF0.07141836880445651
aF0.13020833333333334
aF0.0
asVreal
p1503
(lp1504
g1503
aI66
aF0.7427510355663477
aF0.3645833333333333
aF0.2
asVread
p1505
(lp1506
g1505
aI2
aF0.028567347521782603
aF0.0
aF0.0
asVdark
p1507
(lp1508
g1507
aI9
aF0.1285530638480217
aF0.0
aF-0.15
asVearnest
p1509
(lp1510
g1509
aI18
aF0.2142551064133695
aF0.078125
aF0.0
asVconfined
p1511
(lp1512
g1511
aI3
aF0.0428510212826739
aF0.0
aF0.0
asVlady
p1513
(lp1514
g1513
aI62
aF0.7856020568490216
aF0.18229166666666666
aF0.0
asVvague
p1515
(lp1516
g1515
aI1
aF0.014283673760891302
aF0.0
aF-0.5
asVrear
p1517
(lp1518
g1517
aI1
aF0.0
aF0.026041666666666668
aF0.0
asVtremulous
p1519
(lp1520
g1519
aI3
aF0.0428510212826739
aF0.0
aF0.0
asVacute
p1521
(lp1522
g1521
aI3
aF0.028567347521782603
aF0.026041666666666668
aF0.6
asVacquainted
p1523
(lp1524
g1523
aI7
aF0.0857020425653478
aF0.026041666666666668
aF0.5
asVsupernumerary
p1525
(lp1526
g1525
aI2
aF0.028567347521782603
aF0.0
aF0.0
asVindisputable
p1527
(lp1528
g1527
aI1
aF0.0
aF0.026041666666666668
aF0.0
asVpassionate
p1529
(lp1530
g1529
aI2
aF0.014283673760891302
aF0.026041666666666668
aF0.0
asVcaptious
p1531
(lp1532
g1531
aI2
aF0.028567347521782603
aF0.0
aF0.0
asVtwelve
p1533
(lp1534
g1533
aI3
aF0.0428510212826739
aF0.0
aF0.0
asVcompletest
p1535
(lp1536
g1535
aI1
aF0.0
aF0.026041666666666668
aF0.0
asVmisapplied
p1537
(lp1538
g1537
aI1
aF0.014283673760891302
aF0.0
aF0.0
asVsupplementary
p1539
(lp1540
g1539
aI1
aF0.0
aF0.026041666666666668
aF0.0
asVoftener
p1541
(lp1542
g1541
aI2
aF0.014283673760891302
aF0.026041666666666668
aF0.0
asVdivine
p1543
(lp1544
g1543
aI1
aF0.014283673760891302
aF0.0
aF0.0
asVgross
p1545
(lp1546
g1545
aI4
aF0.014283673760891302
aF0.078125
aF0.0
asVperverse
p1547
(lp1548
g1547
aI1
aF0.014283673760891302
aF0.0
aF0.0
asVunlocked
p1549
(lp1550
g1549
aI1
aF0.014283673760891302
aF0.0
aF0.0
asVlegal
p1551
(lp1552
g1551
aI3
aF0.028567347521782603
aF0.026041666666666668
aF0.2
asVcritical
p1553
(lp1554
g1553
aI6
aF0.057134695043565206
aF0.052083333333333336
aF0.0
asVimputed
p1555
(lp1556
g1555
aI1
aF0.014283673760891302
aF0.0
aF0.0
asV23rd
p1557
(lp1558
g1557
aI1
aF0.0
aF0.026041666666666668
aF0.0
asVmoderate
p1559
(lp1560
g1559
aI7
aF0.057134695043565206
aF0.078125
aF0.0
asVcleansed
p1561
(lp1562
g1561
aI1
aF0.0
aF0.026041666666666668
aF0.0
asVreasonable
p1563
(lp1564
g1563
aI29
aF0.3285244965004999
aF0.15625
aF0.2
asVintimate
p1565
(lp1566
g1565
aI15
aF0.09998571632623911
aF0.20833333333333334
aF0.2
asVextremest
p1567
(lp1568
g1567
aI1
aF0.014283673760891302
aF0.0
aF0.0
asVloudest
p1569
(lp1570
g1569
aI1
aF0.014283673760891302
aF0.0
aF0.0
asVuneasy
p1571
(lp1572
g1571
aI20
aF0.2142551064133695
aF0.13020833333333334
aF0.0
asVluxurious
p1573
(lp1574
g1573
aI4
aF0.028567347521782603
aF0.052083333333333336
aF0.0
asVhandsomest
p1575
(lp1576
g1575
aI6
aF0.057134695043565206
aF0.052083333333333336
aF0.0
asVshocking
p1577
(lp1578
g1577
aI9
aF0.07141836880445651
aF0.10416666666666667
aF-0.7
asVzealous
p1579
(lp1580
g1579
aI4
aF0.0428510212826739
aF0.026041666666666668
aF0.0
asVpracticable
p1581
(lp1582
g1581
aI3
aF0.028567347521782603
aF0.026041666666666668
aF0.0
asVscornful
p1583
(lp1584
g1583
aI1
aF0.014283673760891302
aF0.0
aF0.0
asVmixed
p1585
(lp1586
g1585
aI6
aF0.07141836880445651
aF0.026041666666666668
aF0.0
asVlofty
p1587
(lp1588
g1587
aI1
aF0.0
aF0.026041666666666668
aF0.0
asVbountiful
p1589
(lp1590
g1589
aI1
aF0.0
aF0.026041666666666668
aF0.0
asVwidower
p1591
(lp1592
g1591
aI3
aF0.028567347521782603
aF0.026041666666666668
aF0.0
asVlively
p1593
(lp1594
g1593
aI10
aF0.09998571632623911
aF0.078125
aF0.13636363636363635
asVvaluable
p1595
(lp1596
g1595
aI18
aF0.1714040851306956
aF0.15625
aF0.0
asVyour
p1597
(lp1598
g1597
aI1
aF0.014283673760891302
aF0.0
aF0.0
asVrestless
p1599
(lp1600
g1599
aI6
aF0.0857020425653478
aF0.0
aF0.0
asVdisposed
p1601
(lp1602
g1601
aI13
aF0.0857020425653478
aF0.18229166666666666
aF0.0
asVstrict
p1603
(lp1604
g1603
aI9
aF0.0428510212826739
aF0.15625
aF0.0
asVlow
p1605
(lp1606
g1605
aI56
aF0.5427796029138694
aF0.46875
aF0.0
asVunpolished
p1607
(lp1608
g1607
aI2
aF0.014283673760891302
aF0.026041666666666668
aF0.0
asVhysterical
p1609
(lp1610
g1609
aI2
aF0.028567347521782603
aF0.0
aF-1.0
asVmischief
p1611
(lp1612
g1611
aI1
aF0.014283673760891302
aF0.0
aF0.0
asVcomplete
p1613
(lp1614
g1613
aI21
aF0.1714040851306956
aF0.234375
aF0.1
asVunsettled
p1615
(lp1616
g1615
aI2
aF0.028567347521782603
aF0.0
aF0.0
asVfastidious
p1617
(lp1618
g1617
aI4
aF0.0428510212826739
aF0.026041666666666668
aF0.0
asVdelayed
p1619
(lp1620
g1619
aI1
aF0.014283673760891302
aF0.0
aF0.0
asVstrenuous
p1621
(lp1622
g1621
aI1
aF0.0
aF0.026041666666666668
aF0.0
asVdownstairs
p1623
(lp1624
g1623
aI2
aF0.028567347521782603
aF0.0
aF0.0
asVhandsome
p1625
(lp1626
g1625
aI45
aF0.39994286530495643
aF0.4427083333333333
aF0.5
asVarranged
p1627
(lp1628
g1627
aI4
aF0.028567347521782603
aF0.052083333333333336
aF0.0
asVromantic
p1629
(lp1630
g1629
aI6
aF0.057134695043565206
aF0.052083333333333336
aF0.0
asVdirty
p1631
(lp1632
g1631
aI6
aF0.028567347521782603
aF0.10416666666666667
aF-0.6
asVnetting
p1633
(lp1634
g1633
aI1
aF0.0
aF0.026041666666666668
aF0.0
asVe'er
p1635
(lp1636
g1635
aI1
aF0.0
aF0.026041666666666668
aF0.0
asVbrotherly
p1637
(lp1638
g1637
aI1
aF0.014283673760891302
aF0.0
aF0.0
asVcertain
p1639
(lp1640
g1639
aI49
aF0.39994286530495643
aF0.546875
aF0.21428571428571427
asVdeep
p1641
(lp1642
g1641
aI16
aF0.1571204113698043
aF0.13020833333333334
aF0.0
asVfellow
p1643
(lp1644
g1643
aI3
aF0.028567347521782603
aF0.026041666666666668
aF0.0
asVtranquil
p1645
(lp1646
g1645
aI3
aF0.0428510212826739
aF0.0
aF0.0
asVtremble
p1647
(lp1648
g1647
aI1
aF0.014283673760891302
aF0.0
aF0.0
asVtedious
p1649
(lp1650
g1649
aI2
aF0.014283673760891302
aF0.026041666666666668
aF0.0
asVselfish
p1651
(lp1652
g1651
aI26
aF0.2571061276960434
aF0.20833333333333334
aF0.0
asVunwelcome
p1653
(lp1654
g1653
aI13
aF0.0857020425653478
aF0.18229166666666666
aF0.0
asVpensive
p1655
(lp1656
g1655
aI2
aF0.028567347521782603
aF0.0
aF0.0
asVsanguine
p1657
(lp1658
g1657
aI9
aF0.0857020425653478
aF0.078125
aF0.0
asVaromatic
p1659
(lp1660
g1659
aI1
aF0.014283673760891302
aF0.0
aF0.0
asVthither
p1661
(lp1662
g1661
aI1
aF0.014283673760891302
aF0.0
aF0.0
asVtight
p1663
(lp1664
g1663
aI1
aF0.0
aF0.026041666666666668
aF-0.17857142857142858
asVwoeful
p1665
(lp1666
g1665
aI1
aF0.014283673760891302
aF0.0
aF0.0
asVpuppy
p1667
(lp1668
g1667
aI1
aF0.014283673760891302
aF0.0
aF0.0
asVdisgraceful
p1669
(lp1670
g1669
aI3
aF0.028567347521782603
aF0.026041666666666668
aF0.0
asVfruitless
p1671
(lp1672
g1671
aI1
aF0.014283673760891302
aF0.0
aF0.0
asVineligible
p1673
(lp1674
g1673
aI2
aF0.0
aF0.052083333333333336
aF0.0
asVseparate
p1675
(lp1676
g1675
aI7
aF0.0857020425653478
aF0.026041666666666668
aF0.0
asVpear
p1677
(lp1678
g1677
aI1
aF0.0
aF0.026041666666666668
aF0.0
asVcolicky
p1679
(lp1680
g1679
aI1
aF0.014283673760891302
aF0.0
aF0.0
asVimportant
p1681
(lp1682
g1681
aI26
aF0.2713898014569347
aF0.18229166666666666
aF0.4
asVfresh
p1683
(lp1684
g1683
aI28
aF0.28567347521782605
aF0.20833333333333334
aF0.3
asVprudent
p1685
(lp1686
g1685
aI11
aF0.0857020425653478
aF0.13020833333333334
aF0.0
asVconclusive
p1687
(lp1688
g1687
aI1
aF0.014283673760891302
aF0.0
aF0.0
asVresembled
p1689
(lp1690
g1689
aI1
aF0.014283673760891302
aF0.0
aF0.0
asVmoonlight
p1691
(lp1692
g1691
aI1
aF0.014283673760891302
aF0.0
aF0.0
asVoral
p1693
(lp1694
g1693
aI1
aF0.0
aF0.026041666666666668
aF0.0
asVoriginal
p1695
(lp1696
g1695
aI6
aF0.057134695043565206
aF0.052083333333333336
aF0.375
asVneedful
p1697
(lp1698
g1697
aI1
aF0.014283673760891302
aF0.0
aF0.0
asVinvariable
p1699
(lp1700
g1699
aI5
aF0.07141836880445651
aF0.0
aF0.0
asVsunk
p1701
(lp1702
g1701
aI1
aF0.014283673760891302
aF0.0
aF0.0
asVthoughtful
p1703
(lp1704
g1703
aI10
aF0.0857020425653478
aF0.10416666666666667
aF0.4
asVreligious
p1705
(lp1706
g1705
aI1
aF0.0
aF0.026041666666666668
aF0.0
asVsung
p1707
(lp1708
g1707
aI1
aF0.014283673760891302
aF0.0
aF0.0
asVreluctant
p1709
(lp1710
g1709
aI2
aF0.014283673760891302
aF0.026041666666666668
aF0.0
asVdreadful
p1711
(lp1712
g1711
aI23
aF0.2571061276960434
aF0.13020833333333334
aF-1.0
asVattentive
p1713
(lp1714
g1713
aI22
aF0.22853878017426082
aF0.15625
aF0.0
asVeverywhere
p1715
(lp1716
g1715
aI1
aF0.014283673760891302
aF0.0
aF0.0
asVinexhaustible
p1717
(lp1718
g1717
aI1
aF0.014283673760891302
aF0.0
aF0.0
asVsparkling
p1719
(lp1720
g1719
aI1
aF0.0
aF0.026041666666666668
aF0.0
asVrevengeful
p1721
(lp1722
g1721
aI1
aF0.0
aF0.026041666666666668
aF0.0
asVsmile
p1723
(lp1724
g1723
aI5
aF0.0428510212826739
aF0.052083333333333336
aF0.3
asVhideous
p1725
(lp1726
g1725
aI1
aF0.014283673760891302
aF0.0
aF0.0
asVworse
p1727
(lp1728
g1727
aI39
aF0.37137551778317385
aF0.3385416666666667
aF-0.4
asVpuzzled
p1729
(lp1730
g1729
aI1
aF0.0
aF0.026041666666666668
aF0.0
asVvery
p1731
(lp1732
g1731
aI7
aF0.07141836880445651
aF0.052083333333333336
aF0.2
asVhorror
p1733
(lp1734
g1733
aI1
aF0.014283673760891302
aF0.0
aF0.0
asVlain
p1735
(lp1736
g1735
aI1
aF0.0
aF0.026041666666666668
aF0.0
asVcandid
p1737
(lp1738
g1737
aI1
aF0.014283673760891302
aF0.0
aF0.6
asVworst
p1739
(lp1740
g1739
aI22
aF0.24282245393515212
aF0.13020833333333334
aF-1.0
asVencroaching
p1741
(lp1742
g1741
aI1
aF0.0
aF0.026041666666666668
aF0.0
asVfourth
p1743
(lp1744
g1743
aI3
aF0.0428510212826739
aF0.0
aF0.0
asVcheerful
p1745
(lp1746
g1745
aI29
aF0.28567347521782605
aF0.234375
aF0.4
asVsentimental
p1747
(lp1748
g1747
aI1
aF0.014283673760891302
aF0.0
aF-0.25
asVdeficient
p1749
(lp1750
g1749
aI5
aF0.028567347521782603
aF0.078125
aF-0.4
asVingratitude
p1751
(lp1752
g1751
aI1
aF0.014283673760891302
aF0.0
aF0.0
asVceaseless
p1753
(lp1754
g1753
aI2
aF0.014283673760891302
aF0.026041666666666668
aF-0.1
asVunsuspected
p1755
(lp1756
g1755
aI1
aF0.014283673760891302
aF0.0
aF0.0
asVlarge
p1757
(lp1758
g1757
aI58
aF0.47136123410941294
aF0.6510416666666666
aF0.21428571428571427
asVsmall
p1759
(lp1760
g1759
aI71
aF0.6570489930009998
aF0.6510416666666666
aF-0.25
asVstupefied
p1761
(lp1762
g1761
aI1
aF0.014283673760891302
aF0.0
aF0.0
asVten
p1763
(lp1764
g1763
aI23
aF0.19997143265247821
aF0.234375
aF0.0
asVtea
p1765
(lp1766
g1765
aI3
aF0.014283673760891302
aF0.052083333333333336
aF0.0
asVunheard
p1767
(lp1768
g1767
aI1
aF0.014283673760891302
aF0.0
aF0.0
asVpast
p1769
(lp1770
g1769
aI34
aF0.37137551778317385
aF0.20833333333333334
aF-0.25
asVfurther
p1771
(lp1772
g1771
aI5
aF0.028567347521782603
aF0.078125
aF0.0
asVaffable
p1773
(lp1774
g1773
aI3
aF0.0428510212826739
aF0.0
aF0.8
asVdestitute
p1775
(lp1776
g1775
aI1
aF0.0
aF0.026041666666666668
aF0.0
asVadvantageous
p1777
(lp1778
g1777
aI12
aF0.1285530638480217
aF0.078125
aF0.0
asVsun
p1779
(lp1780
g1779
aI1
aF0.014283673760891302
aF0.0
aF0.0
asVsum
p1781
(lp1782
g1781
aI1
aF0.0
aF0.026041666666666668
aF0.0
asVrascal
p1783
(lp1784
g1783
aI1
aF0.014283673760891302
aF0.0
aF0.0
asVbrief
p1785
(lp1786
g1785
aI4
aF0.028567347521782603
aF0.052083333333333336
aF0.0
asVgouty
p1787
(lp1788
g1787
aI1
aF0.0
aF0.026041666666666668
aF0.0
asVundecided
p1789
(lp1790
g1789
aI2
aF0.014283673760891302
aF0.026041666666666668
aF0.0
asVjudicious
p1791
(lp1792
g1791
aI5
aF0.057134695043565206
aF0.026041666666666668
aF0.0
asVnurse
p1793
(lp1794
g1793
aI4
aF0.0428510212826739
aF0.026041666666666668
aF0.0
asVeverlasting
p1795
(lp1796
g1795
aI1
aF0.014283673760891302
aF0.0
aF0.0
asVpublic
p1797
(lp1798
g1797
aI23
aF0.2571061276960434
aF0.13020833333333334
aF0.0
asVfull
p1799
(lp1800
g1799
aI85
aF0.7570347093272389
aF0.8333333333333334
aF0.35
asVloose
p1801
(lp1802
g1801
aI3
aF0.0
aF0.078125
aF-0.07692307692307693
asVinconsiderable
p1803
(lp1804
g1803
aI4
aF0.0428510212826739
aF0.026041666666666668
aF0.0
asVdisastrous
p1805
(lp1806
g1805
aI1
aF0.014283673760891302
aF0.0
aF-0.7
asVstrong
p1807
(lp1808
g1807
aI83
aF0.8284530781316954
aF0.6510416666666666
aF0.4333333333333333
asVnaval
p1809
(lp1810
g1809
aI3
aF0.0
aF0.078125
aF0.0
asVbrutal
p1811
(lp1812
g1811
aI2
aF0.014283673760891302
aF0.026041666666666668
aF-0.875
asVsoldier
p1813
(lp1814
g1813
aI2
aF0.0
aF0.052083333333333336
aF0.0
asVacquittal
p1815
(lp1816
g1815
aI1
aF0.014283673760891302
aF0.0
aF0.0
asVsocial
p1817
(lp1818
g1817
aI5
aF0.028567347521782603
aF0.078125
aF0.03333333333333333
asVnarrow
p1819
(lp1820
g1819
aI10
aF0.1285530638480217
aF0.026041666666666668
aF-0.2
asVsolitude
p1821
(lp1822
g1821
aI1
aF0.014283673760891302
aF0.0
aF0.0
asVenlightened
p1823
(lp1824
g1823
aI1
aF0.014283673760891302
aF0.0
aF0.0
asVselect
p1825
(lp1826
g1825
aI1
aF0.0
aF0.026041666666666668
aF0.0
asVlibertine
p1827
(lp1828
g1827
aI1
aF0.014283673760891302
aF0.0
aF0.0
asVdistinct
p1829
(lp1830
g1829
aI8
aF0.09998571632623911
aF0.026041666666666668
aF0.0
asVmore
p1831
(lp1832
g1831
aI404
aF4.056563348093129
aF3.125
aF0.5
asVflat
p1833
(lp1834
g1833
aI3
aF0.0428510212826739
aF0.0
aF0.0
asVunprompted
p1835
(lp1836
g1835
aI1
aF0.014283673760891302
aF0.0
aF0.0
asVuncle's
p1837
(lp1838
g1837
aI3
aF0.014283673760891302
aF0.052083333333333336
aF0.0
asVbrisk
p1839
(lp1840
g1839
aI1
aF0.014283673760891302
aF0.0
aF0.0
asVinstrumental
p1841
(lp1842
g1841
aI1
aF0.014283673760891302
aF0.0
aF0.0
asVlanded
p1843
(lp1844
g1843
aI2
aF0.028567347521782603
aF0.0
aF0.0
asVparticular
p1845
(lp1846
g1845
aI67
aF0.6284816454792173
aF0.5989583333333334
aF0.16666666666666666
asVknown
p1847
(lp1848
g1847
aI4
aF0.028567347521782603
aF0.052083333333333336
aF0.0
asVnineteen
p1849
(lp1850
g1849
aI6
aF0.0857020425653478
aF0.0
aF0.0
asVeatable
p1851
(lp1852
g1851
aI2
aF0.014283673760891302
aF0.026041666666666668
aF0.0
asVglad
p1853
(lp1854
g1853
aI80
aF0.7427510355663477
aF0.7291666666666666
aF0.5
asVgravel
p1855
(lp1856
g1855
aI1
aF0.0
aF0.026041666666666668
aF0.0
asVpressing
p1857
(lp1858
g1857
aI2
aF0.028567347521782603
aF0.0
aF0.0
asVspontaneous
p1859
(lp1860
g1859
aI4
aF0.0428510212826739
aF0.026041666666666668
aF0.6
asVscramble
p1861
(lp1862
g1861
aI1
aF0.014283673760891302
aF0.0
aF0.0
asVbeautiful
p1863
(lp1864
g1863
aI21
aF0.2571061276960434
aF0.078125
aF0.85
asVstubborn
p1865
(lp1866
g1865
aI1
aF0.014283673760891302
aF0.0
aF0.0
asVinexpensive
p1867
(lp1868
g1867
aI1
aF0.0
aF0.026041666666666668
aF0.0
asVprompt
p1869
(lp1870
g1869
aI1
aF0.014283673760891302
aF0.0
aF0.0
asVneglected
p1871
(lp1872
g1871
aI2
aF0.014283673760891302
aF0.026041666666666668
aF0.0
asVunbiased
p1873
(lp1874
g1873
aI1
aF0.014283673760891302
aF0.0
aF0.0
asVreproachful
p1875
(lp1876
g1875
aI1
aF0.014283673760891302
aF0.0
aF0.0
asVsharp
p1877
(lp1878
g1877
aI10
aF0.11426939008713041
aF0.052083333333333336
aF-0.125
asVawkward
p1879
(lp1880
g1879
aI11
aF0.057134695043565206
aF0.18229166666666666
aF-0.6
asVforeseen
p1881
(lp1882
g1881
aI4
aF0.057134695043565206
aF0.0
aF0.0
asVunlucky
p1883
(lp1884
g1883
aI6
aF0.07141836880445651
aF0.026041666666666668
aF0.0
asVsacred
p1885
(lp1886
g1885
aI2
aF0.028567347521782603
aF0.0
aF0.0
asVunattended
p1887
(lp1888
g1887
aI1
aF0.014283673760891302
aF0.0
aF0.0
asVheadstrong
p1889
(lp1890
g1889
aI2
aF0.014283673760891302
aF0.026041666666666668
aF0.0
asVtried
p1891
(lp1892
g1891
aI1
aF0.014283673760891302
aF0.0
aF0.0
asVrude
p1893
(lp1894
g1893
aI4
aF0.057134695043565206
aF0.0
aF-0.3
asVsuppose
p1895
(lp1896
g1895
aI2
aF0.014283673760891302
aF0.026041666666666668
aF0.0
asVawkwardest
p1897
(lp1898
g1897
aI1
aF0.014283673760891302
aF0.0
aF0.0
asVwatchful
p1899
(lp1900
g1899
aI3
aF0.0428510212826739
aF0.0
aF0.0
asVinconceivable
p1901
(lp1902
g1901
aI2
aF0.014283673760891302
aF0.026041666666666668
aF0.0
asVauthentic
p1903
(lp1904
g1903
aI1
aF0.0
aF0.026041666666666668
aF0.5
asVreplete
p1905
(lp1906
g1905
aI2
aF0.028567347521782603
aF0.0
aF0.0
asVshort
p1907
(lp1908
g1907
aI113
aF1.0855592058277388
aF0.9635416666666666
aF0.0
asVcrowded
p1909
(lp1910
g1909
aI1
aF0.0
aF0.026041666666666668
aF0.0
asVdeserted
p1911
(lp1912
g1911
aI2
aF0.028567347521782603
aF0.0
aF0.0
asVfondest
p1913
(lp1914
g1913
aI1
aF0.0
aF0.026041666666666668
aF0.0
asVconjugal
p1915
(lp1916
g1915
aI2
aF0.028567347521782603
aF0.0
aF0.0
asVperjured
p1917
(lp1918
g1917
aI1
aF0.0
aF0.026041666666666668
aF0.0
asVreplied
p1919
(lp1920
g1919
aI10
aF0.1285530638480217
aF0.026041666666666668
aF0.0
asVinfant
p1921
(lp1922
g1921
aI1
aF0.014283673760891302
aF0.0
aF0.0
asVheartfelt
p1923
(lp1924
g1923
aI1
aF0.014283673760891302
aF0.0
aF0.0
asVproverbial
p1925
(lp1926
g1925
aI1
aF0.014283673760891302
aF0.0
aF0.0
asVstaunch
p1927
(lp1928
g1927
aI1
aF0.014283673760891302
aF0.0
aF0.0
asVavenue
p1929
(lp1930
g1929
aI1
aF0.014283673760891302
aF0.0
aF0.0
asVsaucy
p1931
(lp1932
g1931
aI2
aF0.028567347521782603
aF0.0
aF0.0
asVhundredth
p1933
(lp1934
g1933
aI2
aF0.028567347521782603
aF0.0
aF0.0
asVlubberly
p1935
(lp1936
g1935
aI1
aF0.0
aF0.026041666666666668
aF0.0
asVpray
p1937
(lp1938
g1937
aI2
aF0.028567347521782603
aF0.0
aF0.0
asVunpolluted
p1939
(lp1940
g1939
aI1
aF0.014283673760891302
aF0.0
aF0.0
asVlate
p1941
(lp1942
g1941
aI54
aF0.47136123410941294
aF0.546875
aF-0.3
asVgood
p1943
(lp1944
g1943
aI501
aF4.513640908441651
aF4.817708333333333
aF0.7
asVcalm
p1945
(lp1946
g1945
aI20
aF0.1714040851306956
aF0.20833333333333334
aF0.30000000000000004
asVindefatigable
p1947
(lp1948
g1947
aI3
aF0.014283673760891302
aF0.052083333333333336
aF0.0
asVsweeping
p1949
(lp1950
g1949
aI1
aF0.014283673760891302
aF0.0
aF0.0
asVprejudiced
p1951
(lp1952
g1951
aI2
aF0.014283673760891302
aF0.026041666666666668
aF0.0
asVhereafter
p1953
(lp1954
g1953
aI3
aF0.014283673760891302
aF0.052083333333333336
aF0.0
asVimprisoned
p1955
(lp1956
g1955
aI2
aF0.0
aF0.052083333333333336
aF0.0
asVknight
p1957
(lp1958
g1957
aI1
aF0.014283673760891302
aF0.0
aF0.0
asVfairy
p1959
(lp1960
g1959
aI1
aF0.014283673760891302
aF0.0
aF0.0
asVintolerable
p1961
(lp1962
g1961
aI1
aF0.0
aF0.026041666666666668
aF0.0
asVexquisite
p1963
(lp1964
g1963
aI9
aF0.11426939008713041
aF0.026041666666666668
aF1.0
asVheavy
p1965
(lp1966
g1965
aI19
aF0.18568775889158692
aF0.15625
aF-0.2
asVharm
p1967
(lp1968
g1967
aI1
aF0.014283673760891302
aF0.0
aF0.0
asVmental
p1969
(lp1970
g1969
aI7
aF0.0857020425653478
aF0.026041666666666668
aF-0.1
asVneedless
p1971
(lp1972
g1971
aI2
aF0.014283673760891302
aF0.026041666666666668
aF-0.5
asVresolute
p1973
(lp1974
g1973
aI1
aF0.014283673760891302
aF0.0
aF0.0
asVcontiguous
p1975
(lp1976
g1975
aI1
aF0.0
aF0.026041666666666668
aF0.0
asVhard
p1977
(lp1978
g1977
aI20
aF0.22853878017426082
aF0.10416666666666667
aF-0.1
asVexorbitant
p1979
(lp1980
g1979
aI1
aF0.014283673760891302
aF0.0
aF0.0
asVexpect
p1981
(lp1982
g1981
aI2
aF0.014283673760891302
aF0.026041666666666668
aF0.0
asVunexceptionable
p1983
(lp1984
g1983
aI9
aF0.07141836880445651
aF0.10416666666666667
aF0.0
asVpresumptuous
p1985
(lp1986
g1985
aI1
aF0.014283673760891302
aF0.0
aF0.0
asVchildish
p1987
(lp1988
g1987
aI2
aF0.028567347521782603
aF0.0
aF-0.2
asVtemporary
p1989
(lp1990
g1989
aI7
aF0.07141836880445651
aF0.052083333333333336
aF0.0
asVprojected
p1991
(lp1992
g1991
aI1
aF0.014283673760891302
aF0.0
aF0.0
asVfortitude
p1993
(lp1994
g1993
aI1
aF0.014283673760891302
aF0.0
aF0.0
asVtiresome
p1995
(lp1996
g1995
aI7
aF0.0857020425653478
aF0.026041666666666668
aF-0.5
asVpathetic
p1997
(lp1998
g1997
aI3
aF0.028567347521782603
aF0.026041666666666668
aF-1.0
asVcheerless
p1999
(lp2000
g1999
aI2
aF0.028567347521782603
aF0.0
aF0.0
asVdung
p2001
(lp2002
g2001
aI1
aF0.014283673760891302
aF0.0
aF0.0
asVforgive
p2003
(lp2004
g2003
aI3
aF0.028567347521782603
aF0.026041666666666668
aF0.0
asVpleasant
p2005
(lp2006
g2005
aI91
aF0.8855877731752607
aF0.7552083333333334
aF0.7333333333333333
asVextraordinary
p2007
(lp2008
g2007
aI27
aF0.28567347521782605
aF0.18229166666666666
aF0.3333333333333333
asVimagine
p2009
(lp2010
g2009
aI8
aF0.09998571632623911
aF0.026041666666666668
aF0.0
asVattendant
p2011
(lp2012
g2011
aI1
aF0.014283673760891302
aF0.0
aF0.2
asVearliest
p2013
(lp2014
g2013
aI5
aF0.057134695043565206
aF0.026041666666666668
aF0.0
asVthrown
p2015
(lp2016
g2015
aI2
aF0.028567347521782603
aF0.0
aF0.0
asVunbecoming
p2017
(lp2018
g2017
aI1
aF0.014283673760891302
aF0.0
aF0.0
asVperceptible
p2019
(lp2020
g2019
aI5
aF0.028567347521782603
aF0.078125
aF0.0
asVterrible
p2021
(lp2022
g2021
aI8
aF0.07141836880445651
aF0.078125
aF0.0
asVexpedient
p2023
(lp2024
g2023
aI2
aF0.028567347521782603
aF0.0
aF0.0
asVblush
p2025
(lp2026
g2025
aI1
aF0.014283673760891302
aF0.0
aF0.0
asVindebted
p2027
(lp2028
g2027
aI1
aF0.0
aF0.026041666666666668
aF0.0
asVunhealthy
p2029
(lp2030
g2029
aI1
aF0.0
aF0.026041666666666668
aF-0.4
asVupper
p2031
(lp2032
g2031
aI7
aF0.07141836880445651
aF0.052083333333333336
aF0.0
asVunfeigned
p2033
(lp2034
g2033
aI1
aF0.014283673760891302
aF0.0
aF0.0
asVfancy
p2035
(lp2036
g2035
aI5
aF0.0428510212826739
aF0.052083333333333336
aF0.0
asVsympathy
p2037
(lp2038
g2037
aI1
aF0.014283673760891302
aF0.0
aF0.0
asVunexpected
p2039
(lp2040
g2039
aI9
aF0.0857020425653478
aF0.078125
aF0.1
asVwager
p2041
(lp2042
g2041
aI1
aF0.014283673760891302
aF0.0
aF0.0
asVmiss
p2043
(lp2044
g2043
aI7
aF0.07141836880445651
aF0.052083333333333336
aF0.0
asVguess
p2045
(lp2046
g2045
aI3
aF0.028567347521782603
aF0.026041666666666668
aF0.0
asVindulgent
p2047
(lp2048
g2047
aI5
aF0.057134695043565206
aF0.026041666666666668
aF0.0
asVtwenty
p2049
(lp2050
g2049
aI8
aF0.0857020425653478
aF0.052083333333333336
aF0.0
asVthreatening
p2051
(lp2052
g2051
aI1
aF0.014283673760891302
aF0.0
aF0.0
asVleast
p2053
(lp2054
g2053
aI147
aF1.5140694186544779
aF1.0677083333333333
aF-0.3
asVwonderful
p2055
(lp2056
g2055
aI19
aF0.22853878017426082
aF0.078125
aF1.0
asVhundred
p2057
(lp2058
g2057
aI7
aF0.0428510212826739
aF0.10416666666666667
aF0.0
asVrecovered
p2059
(lp2060
g2059
aI1
aF0.014283673760891302
aF0.0
aF0.0
asVimperfect
p2061
(lp2062
g2061
aI3
aF0.0428510212826739
aF0.0
aF0.0
asVrelieved
p2063
(lp2064
g2063
aI2
aF0.014283673760891302
aF0.026041666666666668
aF0.0
asVneedle
p2065
(lp2066
g2065
aI1
aF0.014283673760891302
aF0.0
aF0.0
asVlavished
p2067
(lp2068
g2067
aI1
aF0.014283673760891302
aF0.0
aF0.0
asVimmediate
p2069
(lp2070
g2069
aI34
aF0.3142408227396086
aF0.3125
aF0.0
asVsatirical
p2071
(lp2072
g2071
aI2
aF0.028567347521782603
aF0.0
aF0.0
asVdrunkenness
p2073
(lp2074
g2073
aI2
aF0.014283673760891302
aF0.026041666666666668
aF-0.5
asVconvinced
p2075
(lp2076
g2075
aI18
aF0.19997143265247821
aF0.10416666666666667
aF0.0
asVunpardonable
p2077
(lp2078
g2077
aI4
aF0.028567347521782603
aF0.052083333333333336
aF0.0
asVulcerated
p2079
(lp2080
g2079
aI1
aF0.014283673760891302
aF0.0
aF0.0
asVungrateful
p2081
(lp2082
g2081
aI12
aF0.1571204113698043
aF0.026041666666666668
aF0.0
asVlament
p2083
(lp2084
g2083
aI1
aF0.014283673760891302
aF0.0
aF0.0
asVdouble
p2085
(lp2086
g2085
aI4
aF0.0428510212826739
aF0.026041666666666668
aF0.0
asVvocal
p2087
(lp2088
g2087
aI1
aF0.014283673760891302
aF0.0
aF0.0
asVspirited
p2089
(lp2090
g2089
aI2
aF0.028567347521782603
aF0.0
aF0.5
asVdetermined
p2091
(lp2092
g2091
aI21
aF0.19997143265247821
aF0.18229166666666666
aF0.0
asVcontrary
p2093
(lp2094
g2093
aI37
aF0.37137551778317385
aF0.2864583333333333
aF0.0
asVunrelenting
p2095
(lp2096
g2095
aI1
aF0.014283673760891302
aF0.0
aF0.0
asVsuspicious
p2097
(lp2098
g2097
aI6
aF0.0428510212826739
aF0.078125
aF0.0
asVshrewd
p2099
(lp2100
g2099
aI2
aF0.028567347521782603
aF0.0
aF0.0
asVaffirmative
p2101
(lp2102
g2101
aI2
aF0.014283673760891302
aF0.026041666666666668
aF0.6
asVsubstantial
p2103
(lp2104
g2103
aI2
aF0.014283673760891302
aF0.026041666666666668
aF0.0
asVcumbersome
p2105
(lp2106
g2105
aI1
aF0.014283673760891302
aF0.0
aF0.0
asVvulnerable
p2107
(lp2108
g2107
aI1
aF0.014283673760891302
aF0.0
aF-0.5
asVinternal
p2109
(lp2110
g2109
aI1
aF0.014283673760891302
aF0.0
aF0.0
asVuseless
p2111
(lp2112
g2111
aI4
aF0.057134695043565206
aF0.0
aF-0.5
asVsatisfactory
p2113
(lp2114
g2113
aI9
aF0.09998571632623911
aF0.052083333333333336
aF0.0
asVpopulous
p2115
(lp2116
g2115
aI2
aF0.014283673760891302
aF0.026041666666666668
aF0.0
asVinsufferable
p2117
(lp2118
g2117
aI5
aF0.028567347521782603
aF0.078125
aF0.0
asVexperienced
p2119
(lp2120
g2119
aI1
aF0.014283673760891302
aF0.0
aF0.8
asVmost
p2121
(lp2122
g2121
aI91
aF0.8713040994143694
aF0.78125
aF0.5
asVsignificant
p2123
(lp2124
g2123
aI3
aF0.028567347521782603
aF0.026041666666666668
aF0.375
asVsalary
p2125
(lp2126
g2125
aI1
aF0.014283673760891302
aF0.0
aF0.0
asVunequal
p2127
(lp2128
g2127
aI9
aF0.09998571632623911
aF0.052083333333333336
aF0.0
asVsturdy
p2129
(lp2130
g2129
aI2
aF0.0
aF0.052083333333333336
aF0.0
asVclear
p2131
(lp2132
g2131
aI29
aF0.19997143265247821
aF0.390625
aF0.10000000000000002
asVunreasonable
p2133
(lp2134
g2133
aI13
aF0.1571204113698043
aF0.052083333333333336
aF0.0
asVfaithless
p2135
(lp2136
g2135
aI1
aF0.0
aF0.026041666666666668
aF0.0
asVcharitable
p2137
(lp2138
g2137
aI5
aF0.057134695043565206
aF0.026041666666666668
aF0.6
asVlatest
p2139
(lp2140
g2139
aI5
aF0.028567347521782603
aF0.078125
aF0.5
asVvaunted
p2141
(lp2142
g2141
aI1
aF0.0
aF0.026041666666666668
aF0.0
asVlanguid
p2143
(lp2144
g2143
aI4
aF0.028567347521782603
aF0.052083333333333336
aF0.0
asVgold
p2145
(lp2146
g2145
aI2
aF0.028567347521782603
aF0.0
aF0.0
asVfond
p2147
(lp2148
g2147
aI10
aF0.11426939008713041
aF0.052083333333333336
aF0.0
asVaghast
p2149
(lp2150
g2149
aI1
aF0.014283673760891302
aF0.0
aF-0.6
asVmalignant
p2151
(lp2152
g2151
aI1
aF0.014283673760891302
aF0.0
aF0.0
asVfine
p2153
(lp2154
g2153
aI83
aF0.6856163405227824
aF0.9114583333333334
aF0.4166666666666667
asVfind
p2155
(lp2156
g2155
aI1
aF0.014283673760891302
aF0.0
aF0.0
asVnervous
p2157
(lp2158
g2157
aI11
aF0.1285530638480217
aF0.052083333333333336
aF0.0
asVunhappy
p2159
(lp2160
g2159
aI36
aF0.39994286530495643
aF0.20833333333333334
aF-0.6
asVpretty
p2161
(lp2162
g2161
aI39
aF0.44279388658763036
aF0.20833333333333334
aF0.25
asVunsuited
p2163
(lp2164
g2163
aI2
aF0.014283673760891302
aF0.026041666666666668
aF0.0
asVintractable
p2165
(lp2166
g2165
aI1
aF0.014283673760891302
aF0.0
aF0.0
asVdust
p2167
(lp2168
g2167
aI1
aF0.014283673760891302
aF0.0
aF0.0
asVmeanwhile
p2169
(lp2170
g2169
aI1
aF0.014283673760891302
aF0.0
aF0.0
asVdependent
p2171
(lp2172
g2171
aI4
aF0.0428510212826739
aF0.026041666666666668
aF0.0
asVexpress
p2173
(lp2174
g2173
aI4
aF0.028567347521782603
aF0.052083333333333336
aF0.8
asVsunny
p2175
(lp2176
g2175
aI1
aF0.014283673760891302
aF0.0
aF0.0
asVimpregnable
p2177
(lp2178
g2177
aI1
aF0.014283673760891302
aF0.0
aF0.0
asVfamous
p2179
(lp2180
g2179
aI6
aF0.057134695043565206
aF0.052083333333333336
aF0.5
asVlongest
p2181
(lp2182
g2181
aI5
aF0.028567347521782603
aF0.078125
aF0.0
asVinstinctive
p2183
(lp2184
g2183
aI5
aF0.0428510212826739
aF0.052083333333333336
aF0.0
asVinterminable
p2185
(lp2186
g2185
aI1
aF0.014283673760891302
aF0.0
aF0.0
asVkeenest
p2187
(lp2188
g2187
aI1
aF0.014283673760891302
aF0.0
aF0.0
asVcommon
p2189
(lp2190
g2189
aI59
aF0.5427796029138694
aF0.546875
aF-0.3
asVobscure
p2191
(lp2192
g2191
aI1
aF0.0
aF0.026041666666666668
aF0.0
asVcourteous
p2193
(lp2194
g2193
aI4
aF0.057134695043565206
aF0.0
aF0.6
asVinsensible
p2195
(lp2196
g2195
aI8
aF0.0857020425653478
aF0.052083333333333336
aF0.0
asVseventeen
p2197
(lp2198
g2197
aI4
aF0.0428510212826739
aF0.026041666666666668
aF0.0
asVpotent
p2199
(lp2200
g2199
aI2
aF0.028567347521782603
aF0.0
aF0.5
asVplausible
p2201
(lp2202
g2201
aI2
aF0.0
aF0.052083333333333336
aF0.5
asVsee
p2203
(lp2204
g2203
aI1
aF0.0
aF0.026041666666666668
aF0.0
asVindividual
p2205
(lp2206
g2205
aI1
aF0.014283673760891302
aF0.0
aF0.0
asVmanly
p2207
(lp2208
g2207
aI2
aF0.028567347521782603
aF0.0
aF0.0
asVclose
p2209
(lp2210
g2209
aI6
aF0.07141836880445651
aF0.026041666666666668
aF0.0
asVchangeable
p2211
(lp2212
g2211
aI1
aF0.0
aF0.026041666666666668
aF0.0
asVexcusable
p2213
(lp2214
g2213
aI3
aF0.0
aF0.078125
aF0.0
asVoutward
p2215
(lp2216
g2215
aI7
aF0.0857020425653478
aF0.026041666666666668
aF0.0
asVyouth
p2217
(lp2218
g2217
aI1
aF0.014283673760891302
aF0.0
aF0.0
asVprobable
p2219
(lp2220
g2219
aI16
aF0.18568775889158692
aF0.078125
aF0.0
asVhorrid
p2221
(lp2222
g2221
aI7
aF0.0857020425653478
aF0.026041666666666668
aF0.0
asVforlorn
p2223
(lp2224
g2223
aI3
aF0.0428510212826739
aF0.0
aF0.0
asVsmallest
p2225
(lp2226
g2225
aI36
aF0.2713898014569347
aF0.4427083333333333
aF0.0
asVvarious
p2227
(lp2228
g2227
aI9
aF0.07141836880445651
aF0.10416666666666667
aF0.0
asVnumerous
p2229
(lp2230
g2229
aI9
aF0.057134695043565206
aF0.13020833333333334
aF0.0
asVcompliment
p2231
(lp2232
g2231
aI4
aF0.028567347521782603
aF0.052083333333333336
aF0.0
asVknowing
p2233
(lp2234
g2233
aI1
aF0.0
aF0.026041666666666668
aF0.0
asVunconscious
p2235
(lp2236
g2235
aI3
aF0.028567347521782603
aF0.026041666666666668
aF0.0
asVsole
p2237
(lp2238
g2237
aI3
aF0.0428510212826739
aF0.0
aF0.0
asVunsheltered
p2239
(lp2240
g2239
aI1
aF0.014283673760891302
aF0.0
aF0.0
asVtenderest
p2241
(lp2242
g2241
aI3
aF0.028567347521782603
aF0.026041666666666668
aF0.0
asVpoetical
p2243
(lp2244
g2243
aI2
aF0.014283673760891302
aF0.026041666666666668
aF0.0
asVinimitable
p2245
(lp2246
g2245
aI4
aF0.057134695043565206
aF0.0
aF0.0
asVlast
p2247
(lp2248
g2247
aI252
aF2.371089844307956
aF2.2395833333333335
aF0.0
asVquarrelsome
p2249
(lp2250
g2249
aI1
aF0.014283673760891302
aF0.0
aF0.0
asVforeign
p2251
(lp2252
g2251
aI2
aF0.028567347521782603
aF0.0
aF-0.125
asVwhole
p2253
(lp2254
g2253
aI92
aF0.857020425653478
aF0.8333333333333334
aF0.2
asVsimple
p2255
(lp2256
g2255
aI17
aF0.18568775889158692
aF0.10416666666666667
aF0.0
asVsweet
p2257
(lp2258
g2257
aI42
aF0.5142122553920868
aF0.15625
aF0.35
asVimproper
p2259
(lp2260
g2259
aI9
aF0.11426939008713041
aF0.026041666666666668
aF0.0
asVadjoining
p2261
(lp2262
g2261
aI1
aF0.014283673760891302
aF0.0
aF0.0
asVfrosty
p2263
(lp2264
g2263
aI1
aF0.014283673760891302
aF0.0
aF0.0
asVindefinite
p2265
(lp2266
g2265
aI1
aF0.0
aF0.026041666666666668
aF0.0
asVexpensive
p2267
(lp2268
g2267
aI7
aF0.057134695043565206
aF0.078125
aF-0.5
asVdue
p2269
(lp2270
g2269
aI34
aF0.3142408227396086
aF0.3125
aF-0.125
asVrattle
p2271
(lp2272
g2271
aI1
aF0.0
aF0.026041666666666668
aF0.0
asVsecret
p2273
(lp2274
g2273
aI18
aF0.1571204113698043
aF0.18229166666666666
aF-0.4
asVextravagant
p2275
(lp2276
g2275
aI3
aF0.028567347521782603
aF0.026041666666666668
aF0.0
asVcoarse
p2277
(lp2278
g2277
aI2
aF0.028567347521782603
aF0.0
aF0.0
asVempty
p2279
(lp2280
g2279
aI1
aF0.014283673760891302
aF0.0
aF-0.1
asVfirm
p2281
(lp2282
g2281
aI5
aF0.057134695043565206
aF0.026041666666666668
aF-0.2
asVaffectionate
p2283
(lp2284
g2283
aI28
aF0.2713898014569347
aF0.234375
aF0.0
asVgay
p2285
(lp2286
g2285
aI3
aF0.028567347521782603
aF0.026041666666666668
aF0.4166666666666667
asVupstart
p2287
(lp2288
g2287
aI1
aF0.014283673760891302
aF0.0
aF0.0
asVelse
p2289
(lp2290
g2289
aI7
aF0.057134695043565206
aF0.078125
aF0.0
asVdiverted
p2291
(lp2292
g2291
aI1
aF0.0
aF0.026041666666666668
aF0.0
asVawake
p2293
(lp2294
g2293
aI1
aF0.014283673760891302
aF0.0
aF0.0
asVfretful
p2295
(lp2296
g2295
aI1
aF0.014283673760891302
aF0.0
aF0.0
asVextensive
p2297
(lp2298
g2297
aI11
aF0.11426939008713041
aF0.078125
aF0.0
asVstrictest
p2299
(lp2300
g2299
aI4
aF0.057134695043565206
aF0.0
aF0.0
asVslyly
p2301
(lp2302
g2301
aI1
aF0.0
aF0.026041666666666668
aF0.0
asVsolid
p2303
(lp2304
g2303
aI6
aF0.028567347521782603
aF0.10416666666666667
aF0.0
asVstraight
p2305
(lp2306
g2305
aI1
aF0.014283673760891302
aF0.0
aF0.2
asVbrilliant
p2307
(lp2308
g2307
aI6
aF0.057134695043565206
aF0.052083333333333336
aF0.9
asVwithdrawing
p2309
(lp2310
g2309
aI1
aF0.014283673760891302
aF0.0
aF0.0
asVanimated
p2311
(lp2312
g2311
aI7
aF0.0428510212826739
aF0.10416666666666667
aF0.0
asVunwounded
p2313
(lp2314
g2313
aI1
aF0.014283673760891302
aF0.0
aF0.0
asVunexampled
p2315
(lp2316
g2315
aI1
aF0.014283673760891302
aF0.0
aF0.0
asVimpracticable
p2317
(lp2318
g2317
aI1
aF0.0
aF0.026041666666666668
aF0.0
asVencountered
p2319
(lp2320
g2319
aI1
aF0.014283673760891302
aF0.0
aF0.0
asVfrantic
p2321
(lp2322
g2321
aI1
aF0.014283673760891302
aF0.0
aF0.0
asVready
p2323
(lp2324
g2323
aI89
aF0.8713040994143694
aF0.7291666666666666
aF0.2
asVrid
p2325
(lp2326
g2325
aI7
aF0.057134695043565206
aF0.078125
aF0.0
asVanguish
p2327
(lp2328
g2327
aI1
aF0.014283673760891302
aF0.0
aF0.0
asVriotous
p2329
(lp2330
g2329
aI1
aF0.014283673760891302
aF0.0
aF0.0
asVtwofold
p2331
(lp2332
g2331
aI1
aF0.014283673760891302
aF0.0
aF0.0
asVbelong
p2333
(lp2334
g2333
aI1
aF0.014283673760891302
aF0.0
aF0.0
asVseverest
p2335
(lp2336
g2335
aI1
aF0.014283673760891302
aF0.0
aF0.0
asVdelicious
p2337
(lp2338
g2337
aI2
aF0.028567347521782603
aF0.0
aF1.0
asVgrand
p2339
(lp2340
g2339
aI9
aF0.09998571632623911
aF0.052083333333333336
aF0.5
asVdispleased
p2341
(lp2342
g2341
aI3
aF0.0428510212826739
aF0.0
aF0.0
asVcomprehensive
p2343
(lp2344
g2343
aI3
aF0.0428510212826739
aF0.0
aF0.0
asValert
p2345
(lp2346
g2345
aI1
aF0.0
aF0.026041666666666668
aF0.0
asVpurpose
p2347
(lp2348
g2347
aI2
aF0.028567347521782603
aF0.0
aF0.0
asVceremonious
p2349
(lp2350
g2349
aI3
aF0.014283673760891302
aF0.052083333333333336
aF0.0
asVgenuine
p2351
(lp2352
g2351
aI10
aF0.0857020425653478
aF0.10416666666666667
aF0.4
asVtimid
p2353
(lp2354
g2353
aI5
aF0.07141836880445651
aF0.0
aF0.0
asVinfamous
p2355
(lp2356
g2355
aI1
aF0.014283673760891302
aF0.0
aF-0.5
asVrecent
p2357
(lp2358
g2357
aI7
aF0.0857020425653478
aF0.026041666666666668
aF0.0
asVfrozen
p2359
(lp2360
g2359
aI1
aF0.0
aF0.026041666666666668
aF0.0
asVtrustiest
p2361
(lp2362
g2361
aI1
aF0.014283673760891302
aF0.0
aF0.0
asVspent
p2363
(lp2364
g2363
aI1
aF0.014283673760891302
aF0.0
aF-0.1
asVvindictive
p2365
(lp2366
g2365
aI2
aF0.014283673760891302
aF0.026041666666666668
aF0.0
asVscrupulous
p2367
(lp2368
g2367
aI12
aF0.09998571632623911
aF0.13020833333333334
aF0.0
asVsnow
p2369
(lp2370
g2369
aI5
aF0.028567347521782603
aF0.078125
aF0.0
asVirritable
p2371
(lp2372
g2371
aI4
aF0.057134695043565206
aF0.0
aF0.0
asVinsolent
p2373
(lp2374
g2373
aI4
aF0.028567347521782603
aF0.052083333333333336
aF0.0
asVprofitable
p2375
(lp2376
g2375
aI2
aF0.028567347521782603
aF0.0
aF0.0
asVsuperficial
p2377
(lp2378
g2377
aI1
aF0.014283673760891302
aF0.0
aF0.0
asVdisappointed
p2379
(lp2380
g2379
aI20
aF0.22853878017426082
aF0.10416666666666667
aF-0.75
asVbutcher's
p2381
(lp2382
g2381
aI1
aF0.0
aF0.026041666666666668
aF0.0
asVeager
p2383
(lp2384
g2383
aI25
aF0.2571061276960434
aF0.18229166666666666
aF0.0
asVexcited
p2385
(lp2386
g2385
aI1
aF0.014283673760891302
aF0.0
aF0.375
asVsurprised
p2387
(lp2388
g2387
aI15
aF0.1571204113698043
aF0.10416666666666667
aF0.1
asVniece
p2389
(lp2390
g2389
aI5
aF0.07141836880445651
aF0.0
aF0.0
asVtenderhearted
p2391
(lp2392
g2391
aI1
aF0.014283673760891302
aF0.0
aF0.0
asVcouple
p2393
(lp2394
g2393
aI1
aF0.014283673760891302
aF0.0
aF0.0
asVsuffering
p2395
(lp2396
g2395
aI3
aF0.0428510212826739
aF0.0
aF0.0
asVquest
p2397
(lp2398
g2397
aI1
aF0.014283673760891302
aF0.0
aF0.0
asVapt
p2399
(lp2400
g2399
aI9
aF0.09998571632623911
aF0.052083333333333336
aF0.6
asVwiser
p2401
(lp2402
g2401
aI10
aF0.1285530638480217
aF0.026041666666666668
aF0.0
asVvaletudinarian
p2403
(lp2404
g2403
aI1
aF0.0
aF0.026041666666666668
aF0.0
asVlost
p2405
(lp2406
g2405
aI2
aF0.014283673760891302
aF0.026041666666666668
aF0.0
asVimprobable
p2407
(lp2408
g2407
aI2
aF0.028567347521782603
aF0.0
aF0.0
asVgoverness
p2409
(lp2410
g2409
aI1
aF0.014283673760891302
aF0.0
aF0.0
asVpopular
p2411
(lp2412
g2411
aI1
aF0.0
aF0.026041666666666668
aF0.6
asVstylish
p2413
(lp2414
g2413
aI1
aF0.014283673760891302
aF0.0
aF0.5
asVminced
p2415
(lp2416
g2415
aI1
aF0.014283673760891302
aF0.0
aF0.0
asVfoolish
p2417
(lp2418
g2417
aI15
aF0.11426939008713041
aF0.18229166666666666
aF0.0
asVessential
p2419
(lp2420
g2419
aI8
aF0.0857020425653478
aF0.052083333333333336
aF0.0
asVimpassioned
p2421
(lp2422
g2421
aI2
aF0.014283673760891302
aF0.026041666666666668
aF0.0
asVmagnificent
p2423
(lp2424
g2423
aI2
aF0.014283673760891302
aF0.026041666666666668
aF1.0
asVback
p2425
(lp2426
g2425
aI1
aF0.014283673760891302
aF0.0
aF0.0
asVcollectedly
p2427
(lp2428
g2427
aI1
aF0.014283673760891302
aF0.0
aF0.0
asVunderstood
p2429
(lp2430
g2429
aI3
aF0.0428510212826739
aF0.0
aF0.0
asVstrongest
p2431
(lp2432
g2431
aI6
aF0.0428510212826739
aF0.078125
aF0.0
asVadded
p2433
(lp2434
g2433
aI3
aF0.014283673760891302
aF0.052083333333333336
aF0.5
asVcurious
p2435
(lp2436
g2435
aI6
aF0.028567347521782603
aF0.10416666666666667
aF-0.1
asVpale
p2437
(lp2438
g2437
aI5
aF0.07141836880445651
aF0.0
aF-0.21
asVamicable
p2439
(lp2440
g2439
aI1
aF0.0
aF0.026041666666666668
aF0.0
asVmomentary
p2441
(lp2442
g2441
aI9
aF0.0857020425653478
aF0.078125
aF0.0
asVwrong
p2443
(lp2444
g2443
aI41
aF0.39994286530495643
aF0.3385416666666667
aF-0.5
asVpen
p2445
(lp2446
g2445
aI2
aF0.028567347521782603
aF0.0
aF0.0
asVinimical
p2447
(lp2448
g2447
aI1
aF0.014283673760891302
aF0.0
aF0.0
asVeverybody
p2449
(lp2450
g2449
aI1
aF0.0
aF0.026041666666666668
aF0.0
asVpatient
p2451
(lp2452
g2451
aI2
aF0.028567347521782603
aF0.0
aF0.0
asVconversant
p2453
(lp2454
g2453
aI1
aF0.014283673760891302
aF0.0
aF0.0
asVnowhere
p2455
(lp2456
g2455
aI1
aF0.0
aF0.026041666666666668
aF0.0
asVintense
p2457
(lp2458
g2457
aI1
aF0.014283673760891302
aF0.0
aF0.2
asVrut
p2459
(lp2460
g2459
aI1
aF0.014283673760891302
aF0.0
aF0.0
asVcautious
p2461
(lp2462
g2461
aI8
aF0.057134695043565206
aF0.10416666666666667
aF0.0
asVmingled
p2463
(lp2464
g2463
aI1
aF0.014283673760891302
aF0.0
aF0.0
asVstationary
p2465
(lp2466
g2465
aI1
aF0.014283673760891302
aF0.0
aF0.0
asVfrightful
p2467
(lp2468
g2467
aI11
aF0.09998571632623911
aF0.10416666666666667
aF0.0
asVaye
p2469
(lp2470
g2469
aI1
aF0.014283673760891302
aF0.0
aF0.0
asVyouthful
p2471
(lp2472
g2471
aI3
aF0.0428510212826739
aF0.0
aF0.0
asVcredible
p2473
(lp2474
g2473
aI2
aF0.028567347521782603
aF0.0
aF0.0
asVconquest
p2475
(lp2476
g2475
aI1
aF0.014283673760891302
aF0.0
aF0.0
asVnonsense
p2477
(lp2478
g2477
aI8
aF0.057134695043565206
aF0.10416666666666667
aF0.0
asVappropriate
p2479
(lp2480
g2479
aI2
aF0.028567347521782603
aF0.0
aF0.5
asVconscientious
p2481
(lp2482
g2481
aI3
aF0.028567347521782603
aF0.026041666666666668
aF0.0
asVretailed
p2483
(lp2484
g2483
aI1
aF0.014283673760891302
aF0.0
aF0.0
asVimpressed
p2485
(lp2486
g2485
aI1
aF0.014283673760891302
aF0.0
aF1.0
asVrobust
p2487
(lp2488
g2487
aI1
aF0.014283673760891302
aF0.0
aF0.0
asVinnate
p2489
(lp2490
g2489
aI2
aF0.014283673760891302
aF0.026041666666666668
aF0.0
asVfew
p2491
(lp2492
g2491
aI197
aF1.842593915154978
aF1.7708333333333333
aF-0.2
asVfast
p2493
(lp2494
g2493
aI4
aF0.057134695043565206
aF0.0
aF0.2
asVgrave
p2495
(lp2496
g2495
aI8
aF0.0428510212826739
aF0.13020833333333334
aF0.0
asVhealthful
p2497
(lp2498
g2497
aI1
aF0.014283673760891302
aF0.0
aF0.0
asVboys
p2499
(lp2500
g2499
aI4
aF0.028567347521782603
aF0.052083333333333336
aF0.0
asVlibrary
p2501
(lp2502
g2501
aI1
aF0.014283673760891302
aF0.0
aF0.0
asVforbidding
p2503
(lp2504
g2503
aI2
aF0.028567347521782603
aF0.0
aF0.0
asVdull
p2505
(lp2506
g2505
aI12
aF0.0857020425653478
aF0.15625
aF-0.2916666666666667
asVcharacteristic
p2507
(lp2508
g2507
aI1
aF0.014283673760891302
aF0.0
aF-0.06666666666666667
asVforesight
p2509
(lp2510
g2509
aI1
aF0.014283673760891302
aF0.0
aF0.0
asVfaded
p2511
(lp2512
g2511
aI2
aF0.028567347521782603
aF0.0
aF0.0
asVheterogeneous
p2513
(lp2514
g2513
aI1
aF0.0
aF0.026041666666666668
aF0.0
asVsimilar
p2515
(lp2516
g2515
aI4
aF0.057134695043565206
aF0.0
aF0.0
asVassociated
p2517
(lp2518
g2517
aI1
aF0.014283673760891302
aF0.0
aF0.0
asVsingle
p2519
(lp2520
g2519
aI23
aF0.18568775889158692
aF0.2604166666666667
aF-0.07142857142857142
asVparliament
p2521
(lp2522
g2521
aI1
aF0.0
aF0.026041666666666668
aF0.0
asVevening
p2523
(lp2524
g2523
aI4
aF0.028567347521782603
aF0.052083333333333336
aF0.0
asVapropos
p2525
(lp2526
g2525
aI1
aF0.014283673760891302
aF0.0
aF0.0
asVgraceful
p2527
(lp2528
g2527
aI3
aF0.028567347521782603
aF0.026041666666666668
aF0.0
asVcommonest
p2529
(lp2530
g2529
aI2
aF0.014283673760891302
aF0.026041666666666668
aF0.0
asVinvalid
p2531
(lp2532
g2531
aI2
aF0.028567347521782603
aF0.0
aF0.0
asVoccasional
p2533
(lp2534
g2533
aI7
aF0.09998571632623911
aF0.0
aF0.0
asVnay
p2535
(lp2536
g2535
aI2
aF0.014283673760891302
aF0.026041666666666668
aF0.0
asVnice
p2537
(lp2538
g2537
aI16
aF0.1714040851306956
aF0.10416666666666667
aF0.6
asVexplaining
p2539
(lp2540
g2539
aI1
aF0.0
aF0.026041666666666668
aF0.0
asVvenerable
p2541
(lp2542
g2541
aI2
aF0.014283673760891302
aF0.026041666666666668
aF0.0
asVenergetic
p2543
(lp2544
g2543
aI1
aF0.014283673760891302
aF0.0
aF0.5
asVaccidental
p2545
(lp2546
g2545
aI4
aF0.028567347521782603
aF0.052083333333333336
aF0.0
asVsmitten
p2547
(lp2548
g2547
aI1
aF0.0
aF0.026041666666666668
aF0.0
asVpapa
p2549
(lp2550
g2549
aI3
aF0.028567347521782603
aF0.026041666666666668
aF0.0
asVprepared
p2551
(lp2552
g2551
aI6
aF0.057134695043565206
aF0.052083333333333336
aF0.0
asVcharming
p2553
(lp2554
g2553
aI11
aF0.09998571632623911
aF0.10416666666666667
aF0.7
asVpersuadable
p2555
(lp2556
g2555
aI3
aF0.0428510212826739
aF0.0
aF0.0
asVlikeliest
p2557
(lp2558
g2557
aI1
aF0.014283673760891302
aF0.0
aF0.0
asVindissoluble
p2559
(lp2560
g2559
aI1
aF0.0
aF0.026041666666666668
aF0.0
asVwalked
p2561
(lp2562
g2561
aI1
aF0.014283673760891302
aF0.0
aF0.0
asVimpatient
p2563
(lp2564
g2563
aI16
aF0.14283673760891302
aF0.15625
aF-0.2
asVascertained
p2565
(lp2566
g2565
aI1
aF0.014283673760891302
aF0.0
aF0.0
asVimplied
p2567
(lp2568
g2567
aI1
aF0.0
aF0.026041666666666668
aF0.0
asVdismal
p2569
(lp2570
g2569
aI2
aF0.028567347521782603
aF0.0
aF0.0
asVpartial
p2571
(lp2572
g2571
aI8
aF0.057134695043565206
aF0.10416666666666667
aF-0.1
asVashamed
p2573
(lp2574
g2573
aI4
aF0.028567347521782603
aF0.052083333333333336
aF0.0
asVenjoyable
p2575
(lp2576
g2575
aI2
aF0.014283673760891302
aF0.026041666666666668
aF0.0
asVwindy
p2577
(lp2578
g2577
aI1
aF0.014283673760891302
aF0.0
aF0.0
asVamiss
p2579
(lp2580
g2579
aI3
aF0.0428510212826739
aF0.0
aF0.0
asVgossip
p2581
(lp2582
g2581
aI1
aF0.014283673760891302
aF0.0
aF0.0
asVcompact
p2583
(lp2584
g2583
aI1
aF0.0
aF0.026041666666666668
aF0.0
asVconcerned
p2585
(lp2586
g2585
aI8
aF0.11426939008713041
aF0.0
aF0.0
asVyoung
p2587
(lp2588
g2587
aI334
aF2.3568061705470646
aF4.401041666666667
aF0.1
asVsend
p2589
(lp2590
g2589
aI1
aF0.014283673760891302
aF0.0
aF0.0
asVliterary
p2591
(lp2592
g2591
aI2
aF0.028567347521782603
aF0.0
aF0.1
asVobstinate
p2593
(lp2594
g2593
aI2
aF0.028567347521782603
aF0.0
aF0.0
asVstable
p2595
(lp2596
g2595
aI2
aF0.014283673760891302
aF0.026041666666666668
aF0.0
asVundirected
p2597
(lp2598
g2597
aI1
aF0.014283673760891302
aF0.0
aF0.0
asVfriendly
p2599
(lp2600
g2599
aI23
aF0.18568775889158692
aF0.2604166666666667
aF0.375
asVvirtuous
p2601
(lp2602
g2601
aI1
aF0.014283673760891302
aF0.0
aF0.0
asVsteadiest
p2603
(lp2604
g2603
aI1
aF0.014283673760891302
aF0.0
aF0.0
asVcontinued
p2605
(lp2606
g2605
aI10
aF0.057134695043565206
aF0.15625
aF0.0
asVentire
p2607
(lp2608
g2607
aI8
aF0.07141836880445651
aF0.078125
aF0.0
asVinsuperable
p2609
(lp2610
g2609
aI2
aF0.014283673760891302
aF0.026041666666666668
aF0.0
asVcompassionate
p2611
(lp2612
g2611
aI3
aF0.028567347521782603
aF0.026041666666666668
aF0.0
asVnourishing
p2613
(lp2614
g2613
aI2
aF0.028567347521782603
aF0.0
aF0.0
asVanxious
p2615
(lp2616
g2615
aI63
aF0.7284673618054563
aF0.3125
aF-0.25
asVtenderness
p2617
(lp2618
g2617
aI7
aF0.0857020425653478
aF0.026041666666666668
aF0.0
asVsedentary
p2619
(lp2620
g2619
aI2
aF0.014283673760891302
aF0.026041666666666668
aF0.0
asVdisordered
p2621
(lp2622
g2621
aI2
aF0.028567347521782603
aF0.0
aF0.0
asVunprofitable
p2623
(lp2624
g2623
aI1
aF0.014283673760891302
aF0.0
aF0.0
asVenclosed
p2625
(lp2626
g2625
aI1
aF0.0
aF0.026041666666666668
aF0.0
asVuncomfortable
p2627
(lp2628
g2627
aI17
aF0.18568775889158692
aF0.10416666666666667
aF-0.5
asVardent
p2629
(lp2630
g2629
aI3
aF0.0428510212826739
aF0.0
aF0.0
asVabominable
p2631
(lp2632
g2631
aI4
aF0.057134695043565206
aF0.0
aF0.0
asVodd
p2633
(lp2634
g2633
aI17
aF0.1714040851306956
aF0.13020833333333334
aF-0.16666666666666666
asVhourly
p2635
(lp2636
g2635
aI3
aF0.0428510212826739
aF0.0
aF0.0
asVappeased
p2637
(lp2638
g2637
aI1
aF0.0
aF0.026041666666666668
aF0.0
asVhenceforth
p2639
(lp2640
g2639
aI1
aF0.014283673760891302
aF0.0
aF0.0
asVcharade
p2641
(lp2642
g2641
aI1
aF0.0
aF0.026041666666666668
aF0.0
asVmelancholy
p2643
(lp2644
g2643
aI14
aF0.1714040851306956
aF0.052083333333333336
aF0.0
asVdegree
p2645
(lp2646
g2645
aI3
aF0.028567347521782603
aF0.026041666666666668
aF0.0
asVyoungest
p2647
(lp2648
g2647
aI10
aF0.1285530638480217
aF0.026041666666666668
aF0.0
asVunthinking
p2649
(lp2650
g2649
aI1
aF0.0
aF0.026041666666666668
aF0.0
asVunremitting
p2651
(lp2652
g2651
aI1
aF0.014283673760891302
aF0.0
aF0.0
asVfifteen
p2653
(lp2654
g2653
aI3
aF0.0428510212826739
aF0.0
aF0.0
asVextreme
p2655
(lp2656
g2655
aI9
aF0.0857020425653478
aF0.078125
aF-0.125
asVgreat
p2657
(lp2658
g2657
aI430
aF4.1565490644193686
aF3.6197916666666665
aF0.5
asVbroken
p2659
(lp2660
g2659
aI4
aF0.014283673760891302
aF0.078125
aF-0.4
asVdistressed
p2661
(lp2662
g2661
aI13
aF0.14283673760891302
aF0.078125
aF0.0
asVinvolved
p2663
(lp2664
g2663
aI1
aF0.0
aF0.026041666666666668
aF0.0
asVslightest
p2665
(lp2666
g2665
aI8
aF0.07141836880445651
aF0.078125
aF0.0
asVnameless
p2667
(lp2668
g2667
aI1
aF0.0
aF0.026041666666666668
aF-0.5
asVcomposed
p2669
(lp2670
g2669
aI1
aF0.014283673760891302
aF0.0
aF0.0
asVpolitest
p2671
(lp2672
g2671
aI1
aF0.0
aF0.026041666666666668
aF0.0
asVworthy
p2673
(lp2674
g2673
aI15
aF0.18568775889158692
aF0.052083333333333336
aF0.3333333333333333
asVapprehensive
p2675
(lp2676
g2675
aI6
aF0.028567347521782603
aF0.10416666666666667
aF0.0
asVprivate
p2677
(lp2678
g2677
aI26
aF0.2713898014569347
aF0.18229166666666666
aF0.0
asVhardy
p2679
(lp2680
g2679
aI2
aF0.014283673760891302
aF0.026041666666666668
aF0.0
asVaddressed
p2681
(lp2682
g2681
aI2
aF0.028567347521782603
aF0.0
aF0.0
asVunblushing
p2683
(lp2684
g2683
aI1
aF0.0
aF0.026041666666666668
aF0.0
asVnext
p2685
(lp2686
g2685
aI113
aF1.0141408370232823
aF1.09375
aF0.0
asVeleven
p2687
(lp2688
g2687
aI1
aF0.014283673760891302
aF0.0
aF0.0
asVirrepressible
p2689
(lp2690
g2689
aI2
aF0.014283673760891302
aF0.026041666666666668
aF0.0
asVagreeable
p2691
(lp2692
g2691
aI71
aF0.5427796029138694
aF0.859375
aF0.0
asVcircuitous
p2693
(lp2694
g2693
aI1
aF0.014283673760891302
aF0.0
aF0.0
asVindefensible
p2695
(lp2696
g2695
aI1
aF0.014283673760891302
aF0.0
aF0.0
asVclever
p2697
(lp2698
g2697
aI17
aF0.1285530638480217
aF0.20833333333333334
aF0.16666666666666666
asVbeauteous
p2699
(lp2700
g2699
aI1
aF0.014283673760891302
aF0.0
aF0.0
asVendurable
p2701
(lp2702
g2701
aI1
aF0.0
aF0.026041666666666668
aF0.0
asVinclined
p2703
(lp2704
g2703
aI8
aF0.057134695043565206
aF0.10416666666666667
aF0.0
asVheir
p2705
(lp2706
g2705
aI1
aF0.0
aF0.026041666666666668
aF0.0
asVoccurred
p2707
(lp2708
g2707
aI1
aF0.014283673760891302
aF0.0
aF0.0
asVbodily
p2709
(lp2710
g2709
aI3
aF0.028567347521782603
aF0.026041666666666668
aF0.0
asVsore
p2711
(lp2712
g2711
aI1
aF0.014283673760891302
aF0.0
aF0.0
asVfaultless
p2713
(lp2714
g2713
aI1
aF0.014283673760891302
aF0.0
aF1.0
asVinattentive
p2715
(lp2716
g2715
aI4
aF0.0428510212826739
aF0.026041666666666668
aF0.0
asVunforgiving
p2717
(lp2718
g2717
aI1
aF0.0
aF0.026041666666666668
aF0.0
asVharvest
p2719
(lp2720
g2719
aI1
aF0.014283673760891302
aF0.0
aF0.0
asVappointed
p2721
(lp2722
g2721
aI2
aF0.014283673760891302
aF0.026041666666666668
aF0.0
asVdisingenuous
p2723
(lp2724
g2723
aI1
aF0.0
aF0.026041666666666668
aF0.0
asVpour
p2725
(lp2726
g2725
aI1
aF0.014283673760891302
aF0.0
aF0.0
asVanywhere
p2727
(lp2728
g2727
aI2
aF0.028567347521782603
aF0.0
aF0.0
asVthin
p2729
(lp2730
g2729
aI6
aF0.07141836880445651
aF0.026041666666666668
aF0.0
asVvexatious
p2731
(lp2732
g2731
aI2
aF0.014283673760891302
aF0.026041666666666668
aF0.0
asVunread
p2733
(lp2734
g2733
aI1
aF0.014283673760891302
aF0.0
aF0.1
asVreserved
p2735
(lp2736
g2735
aI2
aF0.014283673760891302
aF0.026041666666666668
aF0.0
asVbent
p2737
(lp2738
g2737
aI5
aF0.0428510212826739
aF0.052083333333333336
aF0.0
asVinaccessible
p2739
(lp2740
g2739
aI2
aF0.028567347521782603
aF0.0
aF0.0
asVhigh
p2741
(lp2742
g2741
aI61
aF0.5999142979574347
aF0.4947916666666667
aF0.16
asVspruce
p2743
(lp2744
g2743
aI1
aF0.0
aF0.026041666666666668
aF0.0
asVsought
p2745
(lp2746
g2745
aI1
aF0.014283673760891302
aF0.0
aF0.0
asVsir
p2747
(lp2748
g2747
aI8
aF0.0428510212826739
aF0.13020833333333334
aF0.0
asVunited
p2749
(lp2750
g2749
aI7
aF0.0857020425653478
aF0.026041666666666668
aF0.0
asVdefective
p2751
(lp2752
g2751
aI1
aF0.0
aF0.026041666666666668
aF0.0
asVunconsidered
p2753
(lp2754
g2753
aI1
aF0.014283673760891302
aF0.0
aF0.0
asVfortunate
p2755
(lp2756
g2755
aI20
aF0.19997143265247821
aF0.15625
aF0.0
asVprocured
p2757
(lp2758
g2757
aI1
aF0.014283673760891302
aF0.0
aF0.0
asVundersized
p2759
(lp2760
g2759
aI2
aF0.0
aF0.052083333333333336
aF0.0
asVwittiest
p2761
(lp2762
g2761
aI1
aF0.014283673760891302
aF0.0
aF0.0
asVestablishment
p2763
(lp2764
g2763
aI2
aF0.028567347521782603
aF0.0
aF0.0
asVespecial
p2765
(lp2766
g2765
aI1
aF0.0
aF0.026041666666666668
aF0.0
asVmaternal
p2767
(lp2768
g2767
aI7
aF0.09998571632623911
aF0.0
aF0.0
asVsingular
p2769
(lp2770
g2769
aI1
aF0.0
aF0.026041666666666668
aF0.0
asVobtrusiveness
p2771
(lp2772
g2771
aI1
aF0.0
aF0.026041666666666668
aF0.0
asVtrifling
p2773
(lp2774
g2773
aI4
aF0.014283673760891302
aF0.078125
aF0.0
asVlight
p2775
(lp2776
g2775
aI16
aF0.19997143265247821
aF0.052083333333333336
aF0.4
asVinterrupted
p2777
(lp2778
g2777
aI1
aF0.014283673760891302
aF0.0
aF0.0
asVlinen
p2779
(lp2780
g2779
aI2
aF0.014283673760891302
aF0.026041666666666668
aF0.0
asVchief
p2781
(lp2782
g2781
aI11
aF0.09998571632623911
aF0.10416666666666667
aF0.0
asVpoor
p2783
(lp2784
g2783
aI161
aF1.5854877874589344
aF1.3020833333333333
aF-0.4
asVdoubtful
p2785
(lp2786
g2785
aI13
aF0.09998571632623911
aF0.15625
aF-0.8
asVdearest
p2787
(lp2788
g2787
aI25
aF0.18568775889158692
aF0.3125
aF0.0
asVunquestionable
p2789
(lp2790
g2789
aI1
aF0.014283673760891302
aF0.0
aF0.0
asVperfect
p2791
(lp2792
g2791
aI33
aF0.3285244965004999
aF0.2604166666666667
aF1.0
asVsuperior
p2793
(lp2794
g2793
aI48
aF0.5142122553920868
aF0.3125
aF0.7
asVindustrious
p2795
(lp2796
g2795
aI1
aF0.0
aF0.026041666666666668
aF0.0
asVchosen
p2797
(lp2798
g2797
aI1
aF0.014283673760891302
aF0.0
aF0.0
asVpermanent
p2799
(lp2800
g2799
aI2
aF0.014283673760891302
aF0.026041666666666668
aF0.0
asVdescriptive
p2801
(lp2802
g2801
aI1
aF0.014283673760891302
aF0.0
aF0.0
asVmaterial
p2803
(lp2804
g2803
aI13
aF0.09998571632623911
aF0.15625
aF0.0
asVnegligent
p2805
(lp2806
g2805
aI2
aF0.0
aF0.052083333333333336
aF0.0
asVplacid
p2807
(lp2808
g2807
aI1
aF0.014283673760891302
aF0.0
aF-0.3
asVstout
p2809
(lp2810
g2809
aI1
aF0.014283673760891302
aF0.0
aF0.0
asVfront
p2811
(lp2812
g2811
aI2
aF0.028567347521782603
aF0.0
aF0.0
asVhandy
p2813
(lp2814
g2813
aI1
aF0.014283673760891302
aF0.0
aF0.6
asVwhither
p2815
(lp2816
g2815
aI1
aF0.014283673760891302
aF0.0
aF0.0
asVdelightful
p2817
(lp2818
g2817
aI59
aF0.5999142979574347
aF0.4427083333333333
aF1.0
asVovercharged
p2819
(lp2820
g2819
aI1
aF0.014283673760891302
aF0.0
aF0.0
asVbeneath
p2821
(lp2822
g2821
aI1
aF0.0
aF0.026041666666666668
aF0.0
asVprevailing
p2823
(lp2824
g2823
aI1
aF0.0
aF0.026041666666666668
aF0.0
asVunshaken
p2825
(lp2826
g2825
aI3
aF0.028567347521782603
aF0.026041666666666668
aF0.0
asVthirteen
p2827
(lp2828
g2827
aI3
aF0.0428510212826739
aF0.0
aF0.0
asVwitness
p2829
(lp2830
g2829
aI1
aF0.014283673760891302
aF0.0
aF0.0
asVgallant
p2831
(lp2832
g2831
aI8
aF0.028567347521782603
aF0.15625
aF0.0
asVcousinly
p2833
(lp2834
g2833
aI1
aF0.0
aF0.026041666666666668
aF0.0
asVvehement
p2835
(lp2836
g2835
aI1
aF0.014283673760891302
aF0.0
aF0.0
asVremiss
p2837
(lp2838
g2837
aI4
aF0.0428510212826739
aF0.026041666666666668
aF0.0
asVunprepared
p2839
(lp2840
g2839
aI2
aF0.014283673760891302
aF0.026041666666666668
aF0.0
asVred
p2841
(lp2842
g2841
aI8
aF0.0857020425653478
aF0.052083333333333336
aF0.0
asVoblong
p2843
(lp2844
g2843
aI1
aF0.014283673760891302
aF0.0
aF0.0
asVfrank
p2845
(lp2846
g2845
aI3
aF0.028567347521782603
aF0.026041666666666668
aF0.0
asVfourteen
p2847
(lp2848
g2847
aI5
aF0.057134695043565206
aF0.026041666666666668
aF0.0
asVearly
p2849
(lp2850
g2849
aI70
aF0.5713469504356521
aF0.78125
aF0.1
asVinfatuating
p2851
(lp2852
g2851
aI1
aF0.014283673760891302
aF0.0
aF0.0
asVunmerited
p2853
(lp2854
g2853
aI2
aF0.028567347521782603
aF0.0
aF0.0
asVlength
p2855
(lp2856
g2855
aI2
aF0.028567347521782603
aF0.0
aF0.0
asVhence
p2857
(lp2858
g2857
aI1
aF0.0
aF0.026041666666666668
aF0.0
asVsorrowful
p2859
(lp2860
g2859
aI8
aF0.0857020425653478
aF0.052083333333333336
aF0.0
asVsouth
p2861
(lp2862
g2861
aI1
aF0.014283673760891302
aF0.0
aF0.0
asVfinest
p2863
(lp2864
g2863
aI9
aF0.09998571632623911
aF0.052083333333333336
aF0.0
asVpowerful
p2865
(lp2866
g2865
aI10
aF0.1285530638480217
aF0.026041666666666668
aF0.3
asVindisposed
p2867
(lp2868
g2867
aI2
aF0.014283673760891302
aF0.026041666666666668
aF0.0
asVsoothing
p2869
(lp2870
g2869
aI2
aF0.014283673760891302
aF0.026041666666666668
aF0.0
asVembarrassed
p2871
(lp2872
g2871
aI4
aF0.0428510212826739
aF0.026041666666666668
aF0.0
asVfiligree
p2873
(lp2874
g2873
aI3
aF0.0428510212826739
aF0.0
aF0.0
asVreached
p2875
(lp2876
g2875
aI1
aF0.014283673760891302
aF0.0
aF0.0
asVancient
p2877
(lp2878
g2877
aI5
aF0.028567347521782603
aF0.078125
aF0.0
asVunknown
p2879
(lp2880
g2879
aI12
aF0.11426939008713041
aF0.10416666666666667
aF-0.1
asVdurable
p2881
(lp2882
g2881
aI1
aF0.0
aF0.026041666666666668
aF0.0
asVvulgar
p2883
(lp2884
g2883
aI2
aF0.028567347521782603
aF0.0
aF-0.7
asVimmovable
p2885
(lp2886
g2885
aI1
aF0.014283673760891302
aF0.0
aF0.0
asVnut
p2887
(lp2888
g2887
aI1
aF0.0
aF0.026041666666666668
aF0.0
asVpainful
p2889
(lp2890
g2889
aI29
aF0.38565919154406514
aF0.052083333333333336
aF-0.7
asVprone
p2891
(lp2892
g2891
aI1
aF0.014283673760891302
aF0.0
aF0.0
asVvigorous
p2893
(lp2894
g2893
aI1
aF0.014283673760891302
aF0.0
aF0.0
asVunceasing
p2895
(lp2896
g2895
aI3
aF0.0428510212826739
aF0.0
aF0.0
asVconsoling
p2897
(lp2898
g2897
aI2
aF0.028567347521782603
aF0.0
aF0.0
asVnobody
p2899
(lp2900
g2899
aI4
aF0.0428510212826739
aF0.026041666666666668
aF0.0
asVapproachable
p2901
(lp2902
g2901
aI2
aF0.028567347521782603
aF0.0
aF0.0
asVinestimable
p2903
(lp2904
g2903
aI2
aF0.0
aF0.052083333333333336
aF0.0
asVherself
p2905
(lp2906
g2905
aI1
aF0.014283673760891302
aF0.0
aF0.0
asVbed
p2907
(lp2908
g2907
aI1
aF0.0
aF0.026041666666666668
aF0.0
asVbare
p2909
(lp2910
g2909
aI2
aF0.028567347521782603
aF0.0
aF0.05
asVindistinct
p2911
(lp2912
g2911
aI1
aF0.014283673760891302
aF0.0
aF0.0
asVsteep
p2913
(lp2914
g2913
aI2
aF0.028567347521782603
aF0.0
aF0.0
asVingenious
p2915
(lp2916
g2915
aI2
aF0.028567347521782603
aF0.0
aF0.5
asVunaccountable
p2917
(lp2918
g2917
aI5
aF0.07141836880445651
aF0.0
aF0.0
asVfalse
p2919
(lp2920
g2919
aI4
aF0.057134695043565206
aF0.0
aF-0.4000000000000001
asVunchanged
p2921
(lp2922
g2921
aI2
aF0.028567347521782603
aF0.0
aF0.0
asVcomfortable
p2923
(lp2924
g2923
aI51
aF0.5142122553920868
aF0.390625
aF0.4
asVgentle
p2925
(lp2926
g2925
aI27
aF0.3285244965004999
aF0.10416666666666667
aF0.2
asVunlikely
p2927
(lp2928
g2927
aI2
aF0.0
aF0.052083333333333336
aF-0.5
asVafraid
p2929
(lp2930
g2929
aI61
aF0.5284959291529782
aF0.625
aF-0.6
asVable
p2931
(lp2932
g2931
aI120
aF1.1712612483930867
aF0.9895833333333334
aF0.5
asVprovoked
p2933
(lp2934
g2933
aI1
aF0.014283673760891302
aF0.0
aF0.0
asVtyrannical
p2935
(lp2936
g2935
aI1
aF0.0
aF0.026041666666666668
aF0.0
asVunfelt
p2937
(lp2938
g2937
aI1
aF0.0
aF0.026041666666666668
aF0.0
asVfervent
p2939
(lp2940
g2939
aI2
aF0.014283673760891302
aF0.026041666666666668
aF0.0
asVdeny
p2941
(lp2942
g2941
aI1
aF0.014283673760891302
aF0.0
aF0.0
asVrefreshing
p2943
(lp2944
g2943
aI1
aF0.014283673760891302
aF0.0
aF0.5
asVenthusiastic
p2945
(lp2946
g2945
aI2
aF0.014283673760891302
aF0.026041666666666668
aF0.6
asVbred
p2947
(lp2948
g2947
aI1
aF0.0
aF0.026041666666666668
aF0.0
asVstronger
p2949
(lp2950
g2949
aI15
aF0.1714040851306956
aF0.078125
aF0.0
asVlooked
p2951
(lp2952
g2951
aI1
aF0.014283673760891302
aF0.0
aF0.0
asVabsurd
p2953
(lp2954
g2953
aI7
aF0.028567347521782603
aF0.13020833333333334
aF-0.5
asVrendezvous
p2955
(lp2956
g2955
aI1
aF0.0
aF0.026041666666666668
aF0.0
asVwounded
p2957
(lp2958
g2957
aI3
aF0.0428510212826739
aF0.0
aF0.0
asVcontemptuous
p2959
(lp2960
g2959
aI4
aF0.0428510212826739
aF0.026041666666666668
aF0.0
asVaffair
p2961
(lp2962
g2961
aI1
aF0.014283673760891302
aF0.0
aF0.0
asVclownish
p2963
(lp2964
g2963
aI1
aF0.0
aF0.026041666666666668
aF0.0
asVutter
p2965
(lp2966
g2965
aI5
aF0.0428510212826739
aF0.052083333333333336
aF0.0
asVrough
p2967
(lp2968
g2967
aI6
aF0.0428510212826739
aF0.078125
aF-0.1
asVtrivial
p2969
(lp2970
g2969
aI5
aF0.057134695043565206
aF0.026041666666666668
aF0.0
asVprincipal
p2971
(lp2972
g2971
aI13
aF0.11426939008713041
aF0.13020833333333334
aF0.0
asVpleasantest
p2973
(lp2974
g2973
aI1
aF0.0
aF0.026041666666666668
aF0.0
asVwittier
p2975
(lp2976
g2975
aI2
aF0.014283673760891302
aF0.026041666666666668
aF0.5
asVblamable
p2977
(lp2978
g2977
aI1
aF0.014283673760891302
aF0.0
aF0.0
asVlocal
p2979
(lp2980
g2979
aI3
aF0.014283673760891302
aF0.052083333333333336
aF0.0
asVinferior
p2981
(lp2982
g2981
aI13
aF0.09998571632623911
aF0.15625
aF0.0
asVindignant
p2983
(lp2984
g2983
aI3
aF0.014283673760891302
aF0.052083333333333336
aF0.0
asVmeant
p2985
(lp2986
g2985
aI1
aF0.014283673760891302
aF0.0
aF0.0
asVimprovident
p2987
(lp2988
g2987
aI1
aF0.0
aF0.026041666666666668
aF0.0
asVlistened
p2989
(lp2990
g2989
aI1
aF0.014283673760891302
aF0.0
aF0.0
asVundivided
p2991
(lp2992
g2991
aI1
aF0.0
aF0.026041666666666668
aF0.0
asVfamiliar
p2993
(lp2994
g2993
aI7
aF0.0857020425653478
aF0.026041666666666668
aF0.375
asVirreproachable
p2995
(lp2996
g2995
aI2
aF0.014283673760891302
aF0.026041666666666668
aF0.0
asVlucky
p2997
(lp2998
g2997
aI17
aF0.14283673760891302
aF0.18229166666666666
aF0.3333333333333333
asVbear
p2999
(lp3000
g2999
aI3
aF0.014283673760891302
aF0.052083333333333336
aF0.0
asVjoint
p3001
(lp3002
g3001
aI3
aF0.0428510212826739
aF0.0
aF0.0
asVendless
p3003
(lp3004
g3003
aI3
aF0.014283673760891302
aF0.052083333333333336
aF-0.125
asVcontemptible
p3005
(lp3006
g3005
aI3
aF0.028567347521782603
aF0.026041666666666668
aF0.0
asVshy
p3007
(lp3008
g3007
aI7
aF0.09998571632623911
aF0.0
aF-0.5
asVmarried
p3009
(lp3010
g3009
aI18
aF0.1714040851306956
aF0.15625
aF0.25
asVaffluent
p3011
(lp3012
g3011
aI2
aF0.028567347521782603
aF0.0
aF0.6499999999999999
asVthrive
p3013
(lp3014
g3013
aI1
aF0.0
aF0.026041666666666668
aF0.0
asVwish
p3015
(lp3016
g3015
aI22
aF0.2571061276960434
aF0.10416666666666667
aF0.0
asVsolicitous
p3017
(lp3018
g3017
aI3
aF0.028567347521782603
aF0.026041666666666668
aF0.3
asVfixed
p3019
(lp3020
g3019
aI2
aF0.028567347521782603
aF0.0
aF0.0
asVdeceived
p3021
(lp3022
g3021
aI3
aF0.014283673760891302
aF0.052083333333333336
aF0.0
asVstrengthened
p3023
(lp3024
g3023
aI1
aF0.014283673760891302
aF0.0
aF0.0
asVfarthest
p3025
(lp3026
g3025
aI2
aF0.014283673760891302
aF0.026041666666666668
aF0.0
asVdesperate
p3027
(lp3028
g3027
aI7
aF0.0428510212826739
aF0.10416666666666667
aF-0.6
asVincurable
p3029
(lp3030
g3029
aI2
aF0.028567347521782603
aF0.0
aF-0.5
asVdestiny
p3031
(lp3032
g3031
aI1
aF0.014283673760891302
aF0.0
aF0.0
asVmonstrous
p3033
(lp3034
g3033
aI7
aF0.057134695043565206
aF0.078125
aF0.0
asVgenius
p3035
(lp3036
g3035
aI1
aF0.0
aF0.026041666666666668
aF0.0
asVquickest
p3037
(lp3038
g3037
aI2
aF0.014283673760891302
aF0.026041666666666668
aF0.0
asVhorrible
p3039
(lp3040
g3039
aI12
aF0.0857020425653478
aF0.15625
aF-1.0
asVprogress
p3041
(lp3042
g3041
aI1
aF0.014283673760891302
aF0.0
aF0.0
asVrevived
p3043
(lp3044
g3043
aI1
aF0.014283673760891302
aF0.0
aF0.0
asVspecious
p3045
(lp3046
g3045
aI1
aF0.0
aF0.026041666666666668
aF0.0
asVkey
p3047
(lp3048
g3047
aI1
aF0.0
aF0.026041666666666668
aF0.0
asVprecious
p3049
(lp3050
g3049
aI10
aF0.09998571632623911
aF0.078125
aF0.5
asVfigured
p3051
(lp3052
g3051
aI1
aF0.014283673760891302
aF0.0
aF0.0
asVdireful
p3053
(lp3054
g3053
aI2
aF0.0
aF0.052083333333333336
aF0.0
asVequal
p3055
(lp3056
g3055
aI67
aF0.6713326667618912
aF0.5208333333333334
aF0.0
asVinsidious
p3057
(lp3058
g3057
aI3
aF0.0428510212826739
aF0.0
aF0.0
asVglorious
p3059
(lp3060
g3059
aI1
aF0.014283673760891302
aF0.0
aF0.0
asVunmodernized
p3061
(lp3062
g3061
aI1
aF0.0
aF0.026041666666666668
aF0.0
asVhabitual
p3063
(lp3064
g3063
aI2
aF0.014283673760891302
aF0.026041666666666668
aF0.0
asVworldly
p3065
(lp3066
g3065
aI3
aF0.014283673760891302
aF0.052083333333333336
aF0.0
asVtable
p3067
(lp3068
g3067
aI4
aF0.057134695043565206
aF0.0
aF0.0
asVpulmonary
p3069
(lp3070
g3069
aI1
aF0.014283673760891302
aF0.0
aF0.0
asVtremendous
p3071
(lp3072
g3071
aI2
aF0.014283673760891302
aF0.026041666666666668
aF0.3333333333333333
asVdecent
p3073
(lp3074
g3073
aI4
aF0.028567347521782603
aF0.052083333333333336
aF0.16666666666666666
asVimmense
p3075
(lp3076
g3075
aI2
aF0.028567347521782603
aF0.0
aF0.0
asVwilling
p3077
(lp3078
g3077
aI14
aF0.14283673760891302
aF0.10416666666666667
aF0.25
asVwhisper
p3079
(lp3080
g3079
aI3
aF0.0428510212826739
aF0.0
aF0.0
asVperplexed
p3081
(lp3082
g3081
aI3
aF0.028567347521782603
aF0.026041666666666668
aF0.4
asVproudest
p3083
(lp3084
g3083
aI1
aF0.0
aF0.026041666666666668
aF0.0
asVsufficient
p3085
(lp3086
g3085
aI16
aF0.1571204113698043
aF0.13020833333333334
aF0.0
asVmeritorious
p3087
(lp3088
g3087
aI1
aF0.014283673760891302
aF0.0
aF0.0
asVhateful
p3089
(lp3090
g3089
aI2
aF0.028567347521782603
aF0.0
aF-0.9
asVimproved
p3091
(lp3092
g3091
aI3
aF0.014283673760891302
aF0.052083333333333336
aF0.0
asVgeneral
p3093
(lp3094
g3093
aI133
aF1.0284245107841736
aF1.5885416666666667
aF0.05000000000000002
asVpresent
p3095
(lp3096
g3095
aI146
aF1.3569490072846737
aF1.328125
aF0.0
asVbanish
p3097
(lp3098
g3097
aI1
aF0.014283673760891302
aF0.0
aF0.0
asVfearful
p3099
(lp3100
g3099
aI8
aF0.09998571632623911
aF0.026041666666666668
aF-0.9
asVplain
p3101
(lp3102
g3101
aI8
aF0.07141836880445651
aF0.078125
aF-0.21428571428571427
asVwild
p3103
(lp3104
g3103
aI9
aF0.0857020425653478
aF0.078125
aF0.1
asVhearted
p3105
(lp3106
g3105
aI2
aF0.028567347521782603
aF0.0
aF0.0
asVmerest
p3107
(lp3108
g3107
aI2
aF0.028567347521782603
aF0.0
aF0.0
asVostentatious
p3109
(lp3110
g3109
aI1
aF0.014283673760891302
aF0.0
aF0.0
asVdenial
p3111
(lp3112
g3111
aI2
aF0.028567347521782603
aF0.0
aF0.0
asVuntoward
p3113
(lp3114
g3113
aI3
aF0.028567347521782603
aF0.026041666666666668
aF0.0
asVcross
p3115
(lp3116
g3115
aI1
aF0.014283673760891302
aF0.0
aF0.0
asVstrange
p3117
(lp3118
g3117
aI15
aF0.14283673760891302
aF0.13020833333333334
aF-0.05
asVmerciful
p3119
(lp3120
g3119
aI2
aF0.028567347521782603
aF0.0
aF0.0
asVincumbent
p3121
(lp3122
g3121
aI3
aF0.0428510212826739
aF0.0
aF0.0
asVlargest
p3123
(lp3124
g3123
aI1
aF0.014283673760891302
aF0.0
aF0.0
asVinch
p3125
(lp3126
g3125
aI1
aF0.0
aF0.026041666666666668
aF0.0
asVdifficult
p3127
(lp3128
g3127
aI12
aF0.11426939008713041
aF0.10416666666666667
aF-0.5
asVinjured
p3129
(lp3130
g3129
aI7
aF0.0857020425653478
aF0.026041666666666668
aF0.0
asVsincerest
p3131
(lp3132
g3131
aI1
aF0.014283673760891302
aF0.0
aF0.0
asVdusk
p3133
(lp3134
g3133
aI1
aF0.014283673760891302
aF0.0
aF0.0
asVeccentric
p3135
(lp3136
g3135
aI1
aF0.0
aF0.026041666666666668
aF0.0
asVwisest
p3137
(lp3138
g3137
aI3
aF0.014283673760891302
aF0.052083333333333336
aF0.0
asVupon
p3139
(lp3140
g3139
aI6
aF0.057134695043565206
aF0.052083333333333336
aF0.0
asVundesigned
p3141
(lp3142
g3141
aI1
aF0.014283673760891302
aF0.0
aF0.0
asVinfinite
p3143
(lp3144
g3143
aI9
aF0.057134695043565206
aF0.13020833333333334
aF0.0
asVfreshest
p3145
(lp3146
g3145
aI1
aF0.014283673760891302
aF0.0
aF0.0
asVunpacked
p3147
(lp3148
g3147
aI1
aF0.0
aF0.026041666666666668
aF0.0
asVwretchedest
p3149
(lp3150
g3149
aI1
aF0.014283673760891302
aF0.0
aF0.0
asVdrawing
p3151
(lp3152
g3151
aI1
aF0.0
aF0.026041666666666668
aF0.0
asVusual
p3153
(lp3154
g3153
aI114
aF1.2141122696757607
aF0.7552083333333334
aF-0.25
asVlest
p3155
(lp3156
g3155
aI4
aF0.057134695043565206
aF0.0
aF0.0
asVexcessive
p3157
(lp3158
g3157
aI11
aF0.11426939008713041
aF0.078125
aF-0.25
asVcried
p3159
(lp3160
g3159
aI11
aF0.09998571632623911
aF0.10416666666666667
aF0.0
asVless
p3161
(lp3162
g3161
aI89
aF0.8284530781316954
aF0.8072916666666666
aF-0.16666666666666666
asVwealthy
p3163
(lp3164
g3163
aI1
aF0.0
aF0.026041666666666668
aF0.5
asVdomestic
p3165
(lp3166
g3165
aI22
aF0.14283673760891302
aF0.3125
aF0.0
asVmistaken
p3167
(lp3168
g3167
aI9
aF0.057134695043565206
aF0.13020833333333334
aF0.0
asVdistant
p3169
(lp3170
g3169
aI14
aF0.09998571632623911
aF0.18229166666666666
aF-0.1
asVfishing
p3171
(lp3172
g3171
aI2
aF0.0
aF0.052083333333333336
aF0.0
asVadvertised
p3173
(lp3174
g3173
aI1
aF0.0
aF0.026041666666666668
aF0.0
asVexemplary
p3175
(lp3176
g3175
aI1
aF0.014283673760891302
aF0.0
aF0.0
asVafflicted
p3177
(lp3178
g3177
aI3
aF0.0428510212826739
aF0.0
aF0.0
asVushered
p3179
(lp3180
g3179
aI1
aF0.014283673760891302
aF0.0
aF0.0
asVrapid
p3181
(lp3182
g3181
aI11
aF0.14283673760891302
aF0.026041666666666668
aF0.0
asVclergyman
p3183
(lp3184
g3183
aI1
aF0.014283673760891302
aF0.0
aF0.0
asVattractive
p3185
(lp3186
g3185
aI6
aF0.07141836880445651
aF0.026041666666666668
aF0.8
asVwet
p3187
(lp3188
g3187
aI5
aF0.057134695043565206
aF0.026041666666666668
aF0.0
asVsmart
p3189
(lp3190
g3189
aI10
aF0.1285530638480217
aF0.026041666666666668
aF0.21428571428571427
asVincreased
p3191
(lp3192
g3191
aI1
aF0.014283673760891302
aF0.0
aF0.0
asVample
p3193
(lp3194
g3193
aI3
aF0.028567347521782603
aF0.026041666666666668
aF0.0
asVpunctual
p3195
(lp3196
g3195
aI4
aF0.028567347521782603
aF0.052083333333333336
aF0.0
asVunseen
p3197
(lp3198
g3197
aI2
aF0.028567347521782603
aF0.0
aF0.0
asVincessant
p3199
(lp3200
g3199
aI2
aF0.028567347521782603
aF0.0
aF0.0
asVprominent
p3201
(lp3202
g3201
aI1
aF0.014283673760891302
aF0.0
aF0.5
asVincomprehensible
p3203
(lp3204
g3203
aI2
aF0.0
aF0.052083333333333336
aF0.0
asVnecessary
p3205
(lp3206
g3205
aI66
aF0.6284816454792173
aF0.5729166666666666
aF0.0
asVinviting
p3207
(lp3208
g3207
aI4
aF0.0428510212826739
aF0.026041666666666668
aF0.0
asVsafest
p3209
(lp3210
g3209
aI2
aF0.028567347521782603
aF0.0
aF0.0
asVperpetual
p3211
(lp3212
g3211
aI5
aF0.057134695043565206
aF0.026041666666666668
aF0.0
asVadmitted
p3213
(lp3214
g3213
aI1
aF0.014283673760891302
aF0.0
aF0.0
asVsoft
p3215
(lp3216
g3215
aI13
aF0.1571204113698043
aF0.052083333333333336
aF0.0
asVaudible
p3217
(lp3218
g3217
aI2
aF0.014283673760891302
aF0.026041666666666668
aF0.0
asVinexperienced
p3219
(lp3220
g3219
aI1
aF0.014283673760891302
aF0.0
aF-0.1
asVdecease
p3221
(lp3222
g3221
aI2
aF0.014283673760891302
aF0.026041666666666668
aF0.0
asVinconstant
p3223
(lp3224
g3223
aI1
aF0.014283673760891302
aF0.0
aF0.0
asVshabby
p3225
(lp3226
g3225
aI1
aF0.014283673760891302
aF0.0
aF0.0
asValive
p3227
(lp3228
g3227
aI10
aF0.09998571632623911
aF0.078125
aF0.1
asVmotive
p3229
(lp3230
g3229
aI5
aF0.0428510212826739
aF0.052083333333333336
aF0.0
asVproper
p3231
(lp3232
g3231
aI47
aF0.428510212826739
aF0.4427083333333333
aF0.0
asVproofs
p3233
(lp3234
g3233
aI1
aF0.014283673760891302
aF0.0
aF0.0
asVbroad
p3235
(lp3236
g3235
aI5
aF0.07141836880445651
aF0.0
aF0.0625
asVeconomical
p3237
(lp3238
g3237
aI2
aF0.014283673760891302
aF0.026041666666666668
aF0.3
asVprose
p3239
(lp3240
g3239
aI1
aF0.014283673760891302
aF0.0
aF0.0
asVslight
p3241
(lp3242
g3241
aI17
aF0.1571204113698043
aF0.15625
aF-0.16666666666666666
asVlieutenant
p3243
(lp3244
g3243
aI2
aF0.0
aF0.052083333333333336
aF0.0
asVpoignant
p3245
(lp3246
g3245
aI3
aF0.028567347521782603
aF0.026041666666666668
aF0.0
asVhospitable
p3247
(lp3248
g3247
aI2
aF0.014283673760891302
aF0.026041666666666668
aF0.0
asVmite
p3249
(lp3250
g3249
aI1
aF0.0
aF0.026041666666666668
aF0.0
asVadversary
p3251
(lp3252
g3251
aI1
aF0.014283673760891302
aF0.0
aF0.0
asVnoisy
p3253
(lp3254
g3253
aI6
aF0.057134695043565206
aF0.052083333333333336
aF0.0
asVsister
p3255
(lp3256
g3255
aI31
aF0.35709184402228256
aF0.15625
aF0.0
asVrare
p3257
(lp3258
g3257
aI2
aF0.0
aF0.052083333333333336
aF0.3
asVcarried
p3259
(lp3260
g3259
aI1
aF0.014283673760891302
aF0.0
aF0.0
asVcompatible
p3261
(lp3262
g3261
aI2
aF0.028567347521782603
aF0.0
aF0.0
asVinsufficient
p3263
(lp3264
g3263
aI1
aF0.014283673760891302
aF0.0
aF0.0
asVintroduced
p3265
(lp3266
g3265
aI1
aF0.014283673760891302
aF0.0
aF0.0
asVdiabolical
p3267
(lp3268
g3267
aI1
aF0.014283673760891302
aF0.0
aF0.0
asVown
p3269
(lp3270
g3269
aI619
aF6.0991286959005855
aF5.0
aF0.6
asVpolished
p3271
(lp3272
g3271
aI4
aF0.028567347521782603
aF0.052083333333333336
aF0.0
asVargumentative
p3273
(lp3274
g3273
aI1
aF0.014283673760891302
aF0.0
aF0.0
asVwearisome
p3275
(lp3276
g3275
aI1
aF0.0
aF0.026041666666666668
aF0.0
asVfemale
p3277
(lp3278
g3277
aI3
aF0.028567347521782603
aF0.026041666666666668
aF0.0
asVlawful
p3279
(lp3280
g3279
aI1
aF0.0
aF0.026041666666666668
aF0.0
asVmere
p3281
(lp3282
g3281
aI21
aF0.22853878017426082
aF0.13020833333333334
aF-0.5
asVunfashionable
p3283
(lp3284
g3283
aI1
aF0.014283673760891302
aF0.0
aF0.0
asVdoubtless
p3285
(lp3286
g3285
aI1
aF0.0
aF0.026041666666666668
aF0.0
asVprepossessing
p3287
(lp3288
g3287
aI1
aF0.014283673760891302
aF0.0
aF0.0
asVunanswerable
p3289
(lp3290
g3289
aI4
aF0.014283673760891302
aF0.078125
aF0.0
asVadditional
p3291
(lp3292
g3291
aI3
aF0.014283673760891302
aF0.052083333333333336
aF0.0
asVavowed
p3293
(lp3294
g3293
aI1
aF0.0
aF0.026041666666666668
aF0.0
asVstimulative
p3295
(lp3296
g3295
aI1
aF0.014283673760891302
aF0.0
aF0.0
asVdisengaged
p3297
(lp3298
g3297
aI2
aF0.028567347521782603
aF0.0
aF0.0
asVrepeated
p3299
(lp3300
g3299
aI2
aF0.028567347521782603
aF0.0
aF0.0
asVcontradictory
p3301
(lp3302
g3301
aI1
aF0.014283673760891302
aF0.0
aF0.0
asVhighest
p3303
(lp3304
g3303
aI17
aF0.1571204113698043
aF0.15625
aF0.0
asVdetestable
p3305
(lp3306
g3305
aI2
aF0.0
aF0.052083333333333336
aF0.0
asVevident
p3307
(lp3308
g3307
aI21
aF0.2142551064133695
aF0.15625
aF0.25
asVdangerous
p3309
(lp3310
g3309
aI17
aF0.18568775889158692
aF0.10416666666666667
aF-0.6
asVofficial
p3311
(lp3312
g3311
aI1
aF0.014283673760891302
aF0.0
aF0.0
asVsmooth
p3313
(lp3314
g3313
aI4
aF0.028567347521782603
aF0.052083333333333336
aF0.4
asVtriumphant
p3315
(lp3316
g3315
aI2
aF0.028567347521782603
aF0.0
aF0.0
asVcruel
p3317
(lp3318
g3317
aI6
aF0.057134695043565206
aF0.052083333333333336
aF-1.0
asVcordial
p3319
(lp3320
g3319
aI10
aF0.0857020425653478
aF0.10416666666666667
aF0.0
asVpenetrating
p3321
(lp3322
g3321
aI1
aF0.014283673760891302
aF0.0
aF0.0
asVinadequate
p3323
(lp3324
g3323
aI1
aF0.014283673760891302
aF0.0
aF0.0
asVuniversal
p3325
(lp3326
g3325
aI2
aF0.014283673760891302
aF0.026041666666666668
aF0.0
asVmutual
p3327
(lp3328
g3327
aI13
aF0.1285530638480217
aF0.10416666666666667
aF0.0
asVunintelligible
p3329
(lp3330
g3329
aI3
aF0.014283673760891302
aF0.052083333333333336
aF0.0
asVincredible
p3331
(lp3332
g3331
aI2
aF0.028567347521782603
aF0.0
aF0.0
asVdilatory
p3333
(lp3334
g3333
aI1
aF0.0
aF0.026041666666666668
aF0.0
asVoffensive
p3335
(lp3336
g3335
aI6
aF0.028567347521782603
aF0.10416666666666667
aF0.0
asVother
p3337
(lp3338
g3337
aI357
aF3.2423939437223255
aF3.3854166666666665
aF-0.125
asVsick
p3339
(lp3340
g3339
aI19
aF0.24282245393515212
aF0.052083333333333336
aF-0.7142857142857143
asVinsupportable
p3341
(lp3342
g3341
aI1
aF0.0
aF0.026041666666666668
aF0.0
asVearthly
p3343
(lp3344
g3343
aI1
aF0.014283673760891302
aF0.0
aF0.0
asVinsipid
p3345
(lp3346
g3345
aI2
aF0.014283673760891302
aF0.026041666666666668
aF0.0
asVmercenary
p3347
(lp3348
g3347
aI2
aF0.014283673760891302
aF0.026041666666666668
aF0.0
asVbaked
p3349
(lp3350
g3349
aI2
aF0.028567347521782603
aF0.0
aF0.0
asVconfess
p3351
(lp3352
g3351
aI1
aF0.0
aF0.026041666666666668
aF0.0
as.